(dp1
S'layout'
p2
(ilayout
Layout
p3
(dp4
S'capsules'
p5
(lp6
(I19
I3
tp7
a(I14
I14
tp8
asS'numGhosts'
p9
I4
sS'food'
p10
(igame
Grid
p11
(dp12
S'CELLS_PER_INT'
p13
I30
sS'width'
p14
I34
sS'data'
p15
(lp16
(lp17
I00
aI00
aI00
aI00
aI00
aI00
aI00
aI00
aI00
aI00
aI00
aI00
aI00
aI00
aI00
aI00
aI00
aI00
aa(lp18
I00
aI00
aI00
aI00
aI00
aI00
aI00
aI00
aI01
aI01
aI00
aI00
aI00
aI00
aI01
aI00
aI01
aI00
aa(lp19
I00
aI00
aI00
aI00
aI00
aI00
aI00
aI00
aI00
aI00
aI00
aI00
aI00
aI00
aI01
aI00
aI01
aI00
aa(lp20
I00
aI00
aI00
aI00
aI00
aI00
aI00
aI00
aI00
aI01
aI00
aI00
aI01
aI00
aI00
aI00
aI00
aI00
aa(lp21
I00
aI00
aI00
aI00
aI00
aI00
aI01
aI00
aI00
aI00
aI00
aI00
aI00
aI00
aI01
aI00
aI00
aI00
aa(lp22
I00
aI00
aI00
aI00
aI00
aI00
aI00
aI00
aI00
aI01
aI00
aI01
aI00
aI00
aI00
aI00
aI00
aI00
aa(lp23
I00
aI00
aI00
aI00
aI00
aI00
aI01
aI00
aI00
aI00
aI00
aI01
aI01
aI00
aI00
aI00
aI00
aI00
aa(lp24
I00
aI00
aI00
aI00
aI00
aI00
aI00
aI00
aI00
aI00
aI00
aI00
aI00
aI00
aI00
aI00
aI00
aI00
aa(lp25
I00
aI00
aI00
aI00
aI00
aI00
aI01
aI00
aI01
aI01
aI00
aI00
aI01
aI00
aI00
aI00
aI00
aI00
aa(lp26
I00
aI00
aI00
aI00
aI00
aI01
aI00
aI00
aI00
aI00
aI00
aI00
aI00
aI00
aI00
aI00
aI00
aI00
aa(lp27
I00
aI00
aI01
aI00
aI00
aI00
aI00
aI00
aI00
aI00
aI00
aI00
aI01
aI00
aI00
aI00
aI00
aI00
aa(lp28
I00
aI00
aI00
aI00
aI00
aI00
aI00
aI00
aI00
aI00
aI00
aI00
aI00
aI00
aI00
aI00
aI01
aI00
aa(lp29
I00
aI00
aI00
aI01
aI00
aI00
aI00
aI00
aI01
aI00
aI00
aI00
aI00
aI00
aI00
aI00
aI00
aI00
aa(lp30
I00
aI00
aI00
aI00
aI00
aI00
aI00
aI00
aI00
aI00
aI00
aI00
aI01
aI00
aI00
aI00
aI00
aI00
aa(lp31
I00
aI00
aI00
aI01
aI01
aI00
aI00
aI00
aI00
aI00
aI00
aI00
aI00
aI00
aI00
aI00
aI00
aI00
aa(lp32
I00
aI00
aI00
aI00
aI00
aI00
aI00
aI00
aI00
aI00
aI00
aI00
aI00
aI00
aI00
aI00
aI00
aI00
aa(lp33
I00
aI00
aI00
aI00
aI00
aI01
aI00
aI00
aI00
aI00
aI01
aI00
aI00
aI00
aI00
aI00
aI00
aI00
aa(lp34
I00
aI00
aI00
aI00
aI00
aI00
aI00
aI01
aI00
aI00
aI00
aI00
aI01
aI00
aI00
aI00
aI00
aI00
aa(lp35
I00
aI00
aI00
aI00
aI00
aI00
aI00
aI00
aI00
aI00
aI00
aI00
aI00
aI00
aI00
aI00
aI00
aI00
aa(lp36
I00
aI00
aI00
aI00
aI00
aI00
aI00
aI00
aI00
aI00
aI00
aI00
aI00
aI01
aI01
aI00
aI00
aI00
aa(lp37
I00
aI00
aI00
aI00
aI00
aI01
aI00
aI00
aI00
aI00
aI00
aI00
aI00
aI00
aI00
aI00
aI00
aI00
aa(lp38
I00
aI00
aI00
aI00
aI00
aI00
aI00
aI00
aI00
aI01
aI00
aI00
aI00
aI00
aI01
aI00
aI00
aI00
aa(lp39
I00
aI01
aI00
aI00
aI00
aI00
aI00
aI00
aI00
aI00
aI00
aI00
aI00
aI00
aI00
aI00
aI00
aI00
aa(lp40
I00
aI00
aI00
aI00
aI00
aI01
aI00
aI00
aI00
aI00
aI00
aI00
aI00
aI00
aI00
aI01
aI00
aI00
aa(lp41
I00
aI00
aI00
aI00
aI00
aI00
aI00
aI00
aI00
aI00
aI00
aI00
aI01
aI00
aI00
aI00
aI00
aI00
aa(lp42
I00
aI00
aI00
aI00
aI00
aI01
aI00
aI00
aI01
aI01
aI00
aI01
aI00
aI00
aI00
aI00
aI00
aI00
aa(lp43
I00
aI00
aI00
aI00
aI00
aI00
aI00
aI00
aI00
aI00
aI00
aI00
aI00
aI00
aI00
aI00
aI00
aI00
aa(lp44
I00
aI00
aI00
aI00
aI00
aI01
aI01
aI00
aI00
aI00
aI00
aI01
aI00
aI00
aI00
aI00
aI00
aI00
aa(lp45
I00
aI00
aI00
aI00
aI00
aI00
aI01
aI00
aI01
aI00
aI00
aI00
aI00
aI00
aI00
aI00
aI00
aI00
aa(lp46
I00
aI00
aI00
aI01
aI00
aI00
aI00
aI00
aI00
aI00
aI00
aI01
aI00
aI00
aI00
aI00
aI00
aI00
aa(lp47
I00
aI00
aI00
aI00
aI00
aI01
aI00
aI00
aI01
aI00
aI00
aI00
aI00
aI00
aI00
aI00
aI00
aI00
aa(lp48
I00
aI01
aI00
aI01
aI00
aI00
aI00
aI00
aI00
aI00
aI00
aI00
aI00
aI00
aI00
aI00
aI00
aI00
aa(lp49
I00
aI01
aI00
aI01
aI00
aI00
aI00
aI00
aI01
aI01
aI00
aI00
aI00
aI00
aI00
aI00
aI00
aI00
aa(lp50
I00
aI00
aI00
aI00
aI00
aI00
aI00
aI00
aI00
aI00
aI00
aI00
aI00
aI00
aI00
aI00
aI00
aI00
aasS'height'
p51
I18
sbsS'agentPositions'
p52
(lp53
(I00
(I1
I2
tp54
tp55
a(I00
(I32
I15
tp56
tp57
a(I00
(I1
I1
tp58
tp59
a(I00
(I32
I16
tp60
tp61
asg51
I18
sg14
I34
sS'walls'
p62
(igame
Grid
p63
(dp64
g13
I30
sg14
I34
sg15
(lp65
(lp66
I01
aI01
aI01
aI01
aI01
aI01
aI01
aI01
aI01
aI01
aI01
aI01
aI01
aI01
aI01
aI01
aI01
aI01
aa(lp67
I01
aI00
aI00
aI00
aI00
aI00
aI00
aI00
aI00
aI00
aI01
aI00
aI00
aI01
aI00
aI01
aI00
aI01
aa(lp68
I01
aI01
aI01
aI01
aI01
aI01
aI00
aI01
aI01
aI01
aI01
aI00
aI00
aI01
aI00
aI01
aI00
aI01
aa(lp69
I01
aI00
aI00
aI00
aI00
aI00
aI00
aI01
aI00
aI00
aI01
aI00
aI00
aI01
aI00
aI01
aI00
aI01
aa(lp70
I01
aI01
aI01
aI01
aI00
aI01
aI00
aI00
aI00
aI00
aI00
aI00
aI00
aI01
aI00
aI00
aI00
aI01
aa(lp71
I01
aI00
aI00
aI01
aI00
aI00
aI00
aI01
aI00
aI00
aI01
aI00
aI00
aI01
aI00
aI01
aI00
aI01
aa(lp72
I01
aI00
aI00
aI00
aI00
aI01
aI00
aI01
aI00
aI00
aI01
aI00
aI00
aI00
aI00
aI01
aI00
aI01
aa(lp73
I01
aI01
aI00
aI01
aI01
aI01
aI01
aI01
aI01
aI01
aI01
aI01
aI01
aI01
aI00
aI01
aI00
aI01
aa(lp74
I01
aI00
aI00
aI00
aI00
aI00
aI00
aI01
aI00
aI00
aI00
aI00
aI00
aI01
aI00
aI01
aI00
aI01
aa(lp75
I01
aI00
aI01
aI01
aI01
aI00
aI01
aI01
aI01
aI01
aI01
aI00
aI01
aI01
aI00
aI01
aI00
aI01
aa(lp76
I01
aI00
aI00
aI00
aI00
aI00
aI00
aI00
aI00
aI00
aI00
aI00
aI00
aI01
aI00
aI01
aI00
aI01
aa(lp77
I01
aI00
aI01
aI01
aI01
aI00
aI01
aI01
aI01
aI01
aI01
aI01
aI01
aI01
aI00
aI01
aI00
aI01
aa(lp78
I01
aI00
aI01
aI00
aI00
aI00
aI00
aI00
aI00
aI00
aI00
aI00
aI00
aI00
aI00
aI01
aI00
aI01
aa(lp79
I01
aI00
aI01
aI01
aI00
aI01
aI01
aI01
aI01
aI00
aI01
aI01
aI00
aI00
aI00
aI01
aI00
aI01
aa(lp80
I01
aI00
aI01
aI00
aI00
aI00
aI00
aI00
aI00
aI00
aI00
aI00
aI00
aI01
aI00
aI00
aI00
aI01
aa(lp81
I01
aI00
aI01
aI01
aI01
aI01
aI00
aI00
aI01
aI01
aI00
aI01
aI00
aI01
aI01
aI01
aI00
aI01
aa(lp82
I01
aI00
aI00
aI00
aI00
aI00
aI00
aI00
aI00
aI00
aI00
aI00
aI00
aI00
aI00
aI00
aI00
aI01
aa(lp83
I01
aI00
aI00
aI00
aI00
aI00
aI00
aI00
aI00
aI00
aI00
aI00
aI00
aI00
aI00
aI00
aI00
aI01
aa(lp84
I01
aI00
aI01
aI01
aI01
aI00
aI01
aI00
aI01
aI01
aI00
aI00
aI01
aI01
aI01
aI01
aI00
aI01
aa(lp85
I01
aI00
aI00
aI00
aI01
aI00
aI00
aI00
aI00
aI00
aI00
aI00
aI00
aI00
aI00
aI01
aI00
aI01
aa(lp86
I01
aI00
aI01
aI00
aI00
aI00
aI01
aI01
aI00
aI01
aI01
aI01
aI01
aI00
aI01
aI01
aI00
aI01
aa(lp87
I01
aI00
aI01
aI00
aI00
aI00
aI00
aI00
aI00
aI00
aI00
aI00
aI00
aI00
aI00
aI01
aI00
aI01
aa(lp88
I01
aI00
aI01
aI00
aI01
aI01
aI01
aI01
aI01
aI01
aI01
aI01
aI00
aI01
aI01
aI01
aI00
aI01
aa(lp89
I01
aI00
aI01
aI00
aI01
aI00
aI00
aI00
aI00
aI00
aI00
aI00
aI00
aI00
aI00
aI00
aI00
aI01
aa(lp90
I01
aI00
aI01
aI00
aI01
aI01
aI00
aI01
aI01
aI01
aI01
aI01
aI00
aI01
aI01
aI01
aI00
aI01
aa(lp91
I01
aI00
aI01
aI00
aI01
aI00
aI00
aI00
aI00
aI00
aI01
aI00
aI00
aI00
aI00
aI00
aI00
aI01
aa(lp92
I01
aI00
aI01
aI00
aI01
aI01
aI01
aI01
aI01
aI01
aI01
aI01
aI01
aI01
aI01
aI00
aI01
aI01
aa(lp93
I01
aI00
aI01
aI00
aI00
aI00
aI00
aI01
aI00
aI00
aI01
aI00
aI01
aI00
aI00
aI00
aI00
aI01
aa(lp94
I01
aI00
aI01
aI00
aI01
aI00
aI00
aI01
aI00
aI00
aI01
aI00
aI00
aI00
aI01
aI00
aI00
aI01
aa(lp95
I01
aI00
aI00
aI00
aI01
aI00
aI00
aI00
aI00
aI00
aI00
aI00
aI01
aI00
aI01
aI01
aI01
aI01
aa(lp96
I01
aI00
aI01
aI00
aI01
aI00
aI00
aI01
aI00
aI00
aI01
aI00
aI00
aI00
aI00
aI00
aI00
aI01
aa(lp97
I01
aI00
aI01
aI00
aI01
aI00
aI00
aI01
aI01
aI01
aI01
aI00
aI01
aI01
aI01
aI01
aI01
aI01
aa(lp98
I01
aI00
aI01
aI00
aI01
aI00
aI00
aI01
aI00
aI00
aI00
aI00
aI00
aI00
aI00
aI00
aI00
aI01
aa(lp99
I01
aI01
aI01
aI01
aI01
aI01
aI01
aI01
aI01
aI01
aI01
aI01
aI01
aI01
aI01
aI01
aI01
aI01
aasg51
I18
sbsS'totalFood'
p100
I60
sS'layoutText'
p101
(lp102
S'%%%%%%%%%%%%%%%%%%%%%%%%%%%%%%%%%%'
p103
aS'%..        .              %  % %4%'
p104
aS'%%%% %%%%%%%%% %  %%%%%.%    % %2%'
p105
aS'%.. .         o%  %.%.% % % %% % %'
p106
aS'%%%%%% %%%%%  %%  %.  % % %    % %'
p107
aS'%  .  .%.%.% .   .% %   . %% % % %'
p108
aS'%    ..%   % % %    % % %.%. .   %'
p109
aS'%%%% %%% % % %  .   % % %%%%% %% %'
p110
aS'%.%. . %.% %   %  % %.% %.%    %.%'
p111
aS'%.%    %.% %.% %  %   % %.% . .%.%'
p112
aS'% %% %%%%% % %   .  % % % %%% %%%%'
p113
aS'%   . .%.% % %    % % %   %..    %'
p114
aS'% % % %% .   % %.   . %.%.%.  .  %'
p115
aS'% %    % % %  .%  %%  %%%%% %%%%%%'
p116
aS'% % %% % % %.%.%  %o         . ..%'
p117
aS'%1% %    %.%%%%%  % %%%%%%%%% %%%%'
p118
aS'%3% %  %              .        ..%'
p119
aS'%%%%%%%%%%%%%%%%%%%%%%%%%%%%%%%%%%'
p120
asbsS'blueTeamName'
p121
S'Blue'
p122
sS'actions'
p123
(lp124
(I0
S'North'
p125
tp126
a(I1
S'South'
p127
tp128
a(I2
g125
tp129
a(I3
g127
tp130
a(I0
g125
tp131
a(I1
g127
tp132
a(I2
g125
tp133
a(I3
g127
tp134
a(I0
g125
tp135
a(I1
g127
tp136
a(I2
g125
tp137
a(I3
g127
tp138
a(I0
g125
tp139
a(I1
g127
tp140
a(I2
g125
tp141
a(I3
g127
tp142
a(I0
S'East'
p143
tp144
a(I1
S'West'
p145
tp146
a(I2
g125
tp147
a(I3
g127
tp148
a(I0
g143
tp149
a(I1
g145
tp150
a(I2
g143
tp151
a(I3
g145
tp152
a(I0
g143
tp153
a(I1
g125
tp154
a(I2
g143
tp155
a(I3
g145
tp156
a(I0
g143
tp157
a(I1
g125
tp158
a(I2
g143
tp159
a(I3
g125
tp160
a(I0
g127
tp161
a(I1
g145
tp162
a(I2
S'Stop'
p163
tp164
a(I3
g125
tp165
a(I0
g127
tp166
a(I1
g145
tp167
a(I2
g163
tp168
a(I3
g145
tp169
a(I0
g143
tp170
a(I1
g145
tp171
a(I2
g143
tp172
a(I3
g145
tp173
a(I0
g127
tp174
a(I1
g125
tp175
a(I2
g143
tp176
a(I3
g145
tp177
a(I0
g127
tp178
a(I1
g125
tp179
a(I2
g145
tp180
a(I3
g125
tp181
a(I0
g143
tp182
a(I1
g145
tp183
a(I2
g145
tp184
a(I3
g125
tp185
a(I0
g143
tp186
a(I1
g145
tp187
a(I2
g125
tp188
a(I3
g145
tp189
a(I0
g127
tp190
a(I1
g125
tp191
a(I2
g125
tp192
a(I3
g145
tp193
a(I0
g143
tp194
a(I1
g145
tp195
a(I2
g145
tp196
a(I3
g125
tp197
a(I0
g143
tp198
a(I1
g145
tp199
a(I2
g125
tp200
a(I3
g145
tp201
a(I0
g143
tp202
a(I1
g145
tp203
a(I2
g143
tp204
a(I3
g145
tp205
a(I0
g143
tp206
a(I1
g145
tp207
a(I2
g143
tp208
a(I3
g145
tp209
a(I0
g143
tp210
a(I1
g145
tp211
a(I2
g145
tp212
a(I3
g145
tp213
a(I0
g143
tp214
a(I1
g145
tp215
a(I2
g127
tp216
a(I3
g145
tp217
a(I0
g143
tp218
a(I1
g145
tp219
a(I2
g127
tp220
a(I3
g145
tp221
a(I0
g143
tp222
a(I1
g145
tp223
a(I2
g127
tp224
a(I3
g145
tp225
a(I0
g143
tp226
a(I1
g145
tp227
a(I2
g145
tp228
a(I3
g145
tp229
a(I0
g143
tp230
a(I1
g145
tp231
a(I2
g145
tp232
a(I3
g145
tp233
a(I0
g143
tp234
a(I1
g145
tp235
a(I2
g145
tp236
a(I3
g145
tp237
a(I0
g143
tp238
a(I1
g145
tp239
a(I2
g125
tp240
a(I3
g145
tp241
a(I0
g143
tp242
a(I1
g145
tp243
a(I2
g125
tp244
a(I3
g127
tp245
a(I0
g143
tp246
a(I1
g145
tp247
a(I2
g125
tp248
a(I3
g127
tp249
a(I0
g145
tp250
a(I1
g143
tp251
a(I2
g127
tp252
a(I3
g145
tp253
a(I0
g145
tp254
a(I1
g143
tp255
a(I2
g127
tp256
a(I3
g127
tp257
a(I0
g145
tp258
a(I1
g143
tp259
a(I2
g127
tp260
a(I3
g127
tp261
a(I0
g145
tp262
a(I1
g143
tp263
a(I2
g143
tp264
a(I3
g143
tp265
a(I0
g145
tp266
a(I1
g143
tp267
a(I2
g143
tp268
a(I3
g127
tp269
a(I0
g145
tp270
a(I1
g127
tp271
a(I2
g143
tp272
a(I3
g127
tp273
a(I0
g143
tp274
a(I1
g127
tp275
a(I2
g125
tp276
a(I3
g143
tp277
a(I0
g125
tp278
a(I1
g127
tp279
a(I2
g125
tp280
a(I3
g143
tp281
a(I0
g125
tp282
a(I1
g127
tp283
a(I2
g125
tp284
a(I3
g127
tp285
a(I0
g125
tp286
a(I1
g127
tp287
a(I2
g125
tp288
a(I3
g127
tp289
a(I0
g125
tp290
a(I1
g127
tp291
a(I2
g125
tp292
a(I3
g127
tp293
a(I0
g143
tp294
a(I1
g127
tp295
a(I2
g143
tp296
a(I3
g127
tp297
a(I0
g143
tp298
a(I1
g127
tp299
a(I2
g143
tp300
a(I3
g127
tp301
a(I0
g143
tp302
a(I1
g127
tp303
a(I2
g125
tp304
a(I3
g125
tp305
a(I0
g143
tp306
a(I1
g127
tp307
a(I2
g145
tp308
a(I3
g145
tp309
a(I0
g125
tp310
a(I1
g145
tp311
a(I2
g127
tp312
a(I3
g145
tp313
a(I0
g125
tp314
a(I1
g145
tp315
a(I2
g145
tp316
a(I3
g127
tp317
a(I0
g125
tp318
a(I1
g127
tp319
a(I2
g145
tp320
a(I3
g127
tp321
a(I0
g125
tp322
a(I1
g125
tp323
a(I2
g125
tp324
a(I3
g127
tp325
a(I0
g125
tp326
a(I1
g125
tp327
a(I2
g143
tp328
a(I3
g125
tp329
a(I0
g125
tp330
a(I1
g125
tp331
a(I2
g143
tp332
a(I3
g145
tp333
a(I0
g125
tp334
a(I1
g125
tp335
a(I2
g143
tp336
a(I3
g145
tp337
a(I0
g125
tp338
a(I1
g145
tp339
a(I2
g127
tp340
a(I3
g127
tp341
a(I0
g145
tp342
a(I1
g145
tp343
a(I2
g125
tp344
a(I3
g125
tp345
a(I0
g145
tp346
a(I1
g127
tp347
a(I2
g125
tp348
a(I3
g125
tp349
a(I0
g127
tp350
a(I1
g127
tp351
a(I2
g125
tp352
a(I3
g145
tp353
a(I0
g127
tp354
a(I1
g127
tp355
a(I2
g145
tp356
a(I3
g145
tp357
a(I0
g145
tp358
a(I1
g127
tp359
a(I2
g145
tp360
a(I3
g145
tp361
a(I0
g145
tp362
a(I1
g145
tp363
a(I2
g143
tp364
a(I3
g143
tp365
a(I0
g145
tp366
a(I1
g145
tp367
a(I2
g143
tp368
a(I3
g143
tp369
a(I0
g125
tp370
a(I1
g127
tp371
a(I2
g143
tp372
a(I3
g143
tp373
a(I0
g143
tp374
a(I1
g127
tp375
a(I2
g143
tp376
a(I3
g127
tp377
a(I0
g127
tp378
a(I1
g127
tp379
a(I2
g143
tp380
a(I3
g143
tp381
a(I0
g127
tp382
a(I1
g127
tp383
a(I2
g143
tp384
a(I3
g143
tp385
a(I0
g127
tp386
a(I1
g145
tp387
a(I2
g143
tp388
a(I3
g125
tp389
a(I0
g127
tp390
a(I1
g145
tp391
a(I2
g143
tp392
a(I3
g125
tp393
a(I0
g145
tp394
a(I1
g125
tp395
a(I2
g143
tp396
a(I3
g143
tp397
a(I0
g143
tp398
a(I1
g145
tp399
a(I2
g127
tp400
a(I3
g143
tp401
a(I0
g145
tp402
a(I1
g145
tp403
a(I2
g127
tp404
a(I3
g143
tp405
a(I0
g125
tp406
a(I1
g125
tp407
a(I2
g145
tp408
a(I3
g127
tp409
a(I0
g127
tp410
a(I1
g125
tp411
a(I2
g127
tp412
a(I3
g127
tp413
a(I0
g127
tp414
a(I1
g145
tp415
a(I2
g127
tp416
a(I3
g127
tp417
a(I0
g143
tp418
a(I1
g125
tp419
a(I2
g127
tp420
a(I3
g125
tp421
a(I0
g145
tp422
a(I1
g125
tp423
a(I2
g127
tp424
a(I3
g127
tp425
a(I0
g145
tp426
a(I1
g145
tp427
a(I2
g127
tp428
a(I3
g125
tp429
a(I0
g127
tp430
a(I1
g125
tp431
a(I2
g127
tp432
a(I3
g127
tp433
a(I0
g125
tp434
a(I1
g125
tp435
a(I2
g127
tp436
a(I3
g125
tp437
a(I0
g127
tp438
a(I1
g125
tp439
a(I2
g145
tp440
a(I3
g125
tp441
a(I0
g125
tp442
a(I1
g143
tp443
a(I2
g145
tp444
a(I3
g125
tp445
a(I0
g127
tp446
a(I1
g145
tp447
a(I2
g145
tp448
a(I3
g125
tp449
a(I0
g125
tp450
a(I1
g125
tp451
a(I2
g145
tp452
a(I3
g125
tp453
a(I0
g127
tp454
a(I1
g125
tp455
a(I2
g125
tp456
a(I3
g125
tp457
a(I0
g125
tp458
a(I1
g143
tp459
a(I2
g127
tp460
a(I3
g125
tp461
a(I0
g145
tp462
a(I1
g143
tp463
a(I2
g143
tp464
a(I3
g125
tp465
a(I0
g143
tp466
a(I1
g125
tp467
a(I2
g143
tp468
a(I3
g125
tp469
a(I0
g143
tp470
a(I1
g125
tp471
a(I2
g143
tp472
a(I3
g125
tp473
a(I0
g143
tp474
a(I1
g125
tp475
a(I2
g143
tp476
a(I3
g125
tp477
a(I0
g143
tp478
a(I1
g145
tp479
a(I2
g125
tp480
a(I3
g125
tp481
a(I0
g143
tp482
a(I1
g145
tp483
a(I2
g125
tp484
a(I3
g125
tp485
a(I0
g125
tp486
a(I1
g125
tp487
a(I2
g125
tp488
a(I3
g145
tp489
a(I0
g125
tp490
a(I1
g125
tp491
a(I2
g125
tp492
a(I3
g145
tp493
a(I0
g125
tp494
a(I1
g143
tp495
a(I2
g125
tp496
a(I3
g145
tp497
a(I0
g125
tp498
a(I1
g143
tp499
a(I2
g125
tp500
a(I3
g145
tp501
a(I0
g125
tp502
a(I1
g143
tp503
a(I2
g125
tp504
a(I3
g145
tp505
a(I0
g125
tp506
a(I1
g143
tp507
a(I2
g143
tp508
a(I3
g145
tp509
a(I0
g125
tp510
a(I1
g143
tp511
a(I2
g145
tp512
a(I3
g145
tp513
a(I0
g127
tp514
a(I1
g143
tp515
a(I2
g125
tp516
a(I3
g145
tp517
a(I0
g125
tp518
a(I1
g143
tp519
a(I2
g143
tp520
a(I3
g145
tp521
a(I0
g127
tp522
a(I1
g143
tp523
a(I2
g125
tp524
a(I3
g145
tp525
a(I0
g125
tp526
a(I1
g143
tp527
a(I2
g143
tp528
a(I3
g145
tp529
a(I0
g127
tp530
a(I1
g143
tp531
a(I2
g125
tp532
a(I3
g145
tp533
a(I0
g143
tp534
a(I1
g143
tp535
a(I2
g125
tp536
a(I3
g145
tp537
a(I0
g143
tp538
a(I1
g143
tp539
a(I2
g143
tp540
a(I3
g145
tp541
a(I0
g125
tp542
a(I1
g143
tp543
a(I2
g145
tp544
a(I3
g145
tp545
a(I0
g127
tp546
a(I1
g127
tp547
a(I2
g145
tp548
a(I3
g145
tp549
a(I0
g125
tp550
a(I1
g127
tp551
a(I2
g145
tp552
a(I3
g143
tp553
a(I0
g127
tp554
a(I1
g127
tp555
a(I2
g145
tp556
a(I3
g143
tp557
a(I0
g125
tp558
a(I1
g127
tp559
a(I2
g145
tp560
a(I3
g143
tp561
a(I0
g127
tp562
a(I1
g127
tp563
a(I2
g145
tp564
a(I3
g127
tp565
a(I0
g127
tp566
a(I1
g143
tp567
a(I2
g145
tp568
a(I3
g127
tp569
a(I0
g143
tp570
a(I1
g143
tp571
a(I2
g145
tp572
a(I3
g143
tp573
a(I0
g143
tp574
a(I1
g125
tp575
a(I2
g145
tp576
a(I3
g143
tp577
a(I0
g143
tp578
a(I1
g125
tp579
a(I2
g145
tp580
a(I3
g127
tp581
a(I0
g145
tp582
a(I1
g143
tp583
a(I2
g145
tp584
a(I3
g125
tp585
a(I0
g145
tp586
a(I1
g143
tp587
a(I2
g127
tp588
a(I3
g143
tp589
a(I0
g145
tp590
a(I1
g127
tp591
a(I2
g127
tp592
a(I3
g143
tp593
a(I0
g163
tp594
a(I1
g127
tp595
a(I2
g143
tp596
a(I3
g143
tp597
a(I0
g125
tp598
a(I1
g127
tp599
a(I2
g143
tp600
a(I3
g143
tp601
a(I0
g125
tp602
a(I1
g127
tp603
a(I2
g143
tp604
a(I3
g143
tp605
a(I0
g125
tp606
a(I1
g127
tp607
a(I2
g143
tp608
a(I3
g143
tp609
a(I0
g125
tp610
a(I1
g127
tp611
a(I2
g143
tp612
a(I3
g127
tp613
a(I0
g143
tp614
a(I1
g127
tp615
a(I2
g143
tp616
a(I3
g127
tp617
a(I0
g143
tp618
a(I1
g127
tp619
a(I2
g143
tp620
a(I3
g143
tp621
a(I0
g127
tp622
a(I1
g127
tp623
a(I2
g143
tp624
a(I3
g143
tp625
a(I0
g127
tp626
a(I1
g127
tp627
a(I2
g143
tp628
a(I3
g143
tp629
a(I0
g143
tp630
a(I1
g145
tp631
a(I2
g127
tp632
a(I3
g143
tp633
a(I0
g143
tp634
a(I1
g145
tp635
a(I2
g127
tp636
a(I3
g143
tp637
a(I0
g143
tp638
a(I1
g127
tp639
a(I2
g145
tp640
a(I3
g127
tp641
a(I0
g127
tp642
a(I1
g127
tp643
a(I2
g125
tp644
a(I3
g127
tp645
a(I0
g127
tp646
a(I1
g145
tp647
a(I2
g125
tp648
a(I3
g145
tp649
a(I0
g143
tp650
a(I1
g145
tp651
a(I2
g145
tp652
a(I3
g145
tp653
a(I0
g143
tp654
a(I1
g163
tp655
a(I2
g145
tp656
a(I3
g145
tp657
a(I0
g125
tp658
a(I1
g163
tp659
a(I2
g145
tp660
a(I3
g127
tp661
a(I0
g125
tp662
a(I1
g163
tp663
a(I2
g145
tp664
a(I3
g145
tp665
a(I0
g125
tp666
a(I1
g163
tp667
a(I2
g145
tp668
a(I3
g145
tp669
a(I0
g143
tp670
a(I1
g163
tp671
a(I2
g145
tp672
a(I3
g127
tp673
a(I0
g143
tp674
a(I1
g125
tp675
a(I2
g143
tp676
a(I3
g125
tp677
a(I0
g143
tp678
a(I1
g125
tp679
a(I2
g143
tp680
a(I3
g125
tp681
a(I0
g143
tp682
a(I1
g125
tp683
a(I2
g143
tp684
a(I3
g125
tp685
a(I0
g125
tp686
a(I1
g125
tp687
a(I2
g143
tp688
a(I3
g125
tp689
a(I0
g125
tp690
a(I1
g125
tp691
a(I2
g143
tp692
a(I3
g143
tp693
a(I0
g125
tp694
a(I1
g125
tp695
a(I2
g143
tp696
a(I3
g143
tp697
a(I0
g125
tp698
a(I1
g125
tp699
a(I2
g143
tp700
a(I3
g143
tp701
a(I0
g125
tp702
a(I1
g125
tp703
a(I2
g127
tp704
a(I3
g143
tp705
a(I0
g125
tp706
a(I1
g125
tp707
a(I2
g127
tp708
a(I3
g143
tp709
a(I0
g127
tp710
a(I1
g163
tp711
a(I2
g145
tp712
a(I3
g127
tp713
a(I0
g125
tp714
a(I1
g125
tp715
a(I2
g125
tp716
a(I3
g127
tp717
a(I0
g127
tp718
a(I1
g127
tp719
a(I2
g125
tp720
a(I3
g145
tp721
a(I0
g127
tp722
a(I1
g163
tp723
a(I2
g143
tp724
a(I3
g127
tp725
a(I0
g143
tp726
a(I1
g163
tp727
a(I2
g127
tp728
a(I3
g127
tp729
a(I0
g143
tp730
a(I1
g163
tp731
a(I2
g127
tp732
a(I3
g143
tp733
a(I0
g125
tp734
a(I1
g163
tp735
a(I2
g145
tp736
a(I3
g127
tp737
a(I0
g143
tp738
a(I1
g163
tp739
a(I2
g125
tp740
a(I3
g127
tp741
a(I0
g145
tp742
a(I1
g163
tp743
a(I2
g125
tp744
a(I3
g145
tp745
a(I0
g143
tp746
a(I1
g163
tp747
a(I2
g143
tp748
a(I3
g145
tp749
a(I0
g145
tp750
a(I1
g163
tp751
a(I2
g127
tp752
a(I3
g143
tp753
a(I0
g143
tp754
a(I1
g163
tp755
a(I2
g127
tp756
a(I3
g145
tp757
a(I0
g145
tp758
a(I1
g163
tp759
a(I2
g143
tp760
a(I3
g143
tp761
a(I0
g143
tp762
a(I1
g163
tp763
a(I2
g143
tp764
a(I3
g145
tp765
a(I0
g145
tp766
a(I1
g163
tp767
a(I2
g145
tp768
a(I3
g143
tp769
a(I0
g125
tp770
a(I1
g163
tp771
a(I2
g145
tp772
a(I3
g125
tp773
a(I0
g127
tp774
a(I1
g163
tp775
a(I2
g143
tp776
a(I3
g143
tp777
a(I0
g143
tp778
a(I1
g163
tp779
a(I2
g145
tp780
a(I3
g125
tp781
a(I0
g145
tp782
a(I1
g163
tp783
a(I2
g145
tp784
a(I3
g125
tp785
a(I0
g143
tp786
a(I1
g163
tp787
a(I2
g125
tp788
a(I3
g125
tp789
a(I0
g145
tp790
a(I1
g163
tp791
a(I2
g125
tp792
a(I3
g125
tp793
a(I0
g125
tp794
a(I1
g163
tp795
a(I2
g145
tp796
a(I3
g125
tp797
a(I0
g127
tp798
a(I1
g163
tp799
a(I2
g145
tp800
a(I3
g125
tp801
a(I0
g125
tp802
a(I1
g163
tp803
a(I2
g145
tp804
a(I3
g125
tp805
a(I0
g127
tp806
a(I1
g163
tp807
a(I2
g145
tp808
a(I3
g125
tp809
a(I0
g143
tp810
a(I1
g163
tp811
a(I2
g145
tp812
a(I3
g125
tp813
a(I0
g145
tp814
a(I1
g163
tp815
a(I2
g145
tp816
a(I3
g145
tp817
a(I0
g125
tp818
a(I1
g163
tp819
a(I2
g145
tp820
a(I3
g145
tp821
a(I0
g125
tp822
a(I1
g125
tp823
a(I2
g143
tp824
a(I3
g145
tp825
a(I0
g127
tp826
a(I1
g127
tp827
a(I2
g143
tp828
a(I3
g145
tp829
a(I0
g127
tp830
a(I1
g163
tp831
a(I2
g145
tp832
a(I3
g145
tp833
a(I0
g143
tp834
a(I1
g163
tp835
a(I2
g145
tp836
a(I3
g145
tp837
a(I0
g145
tp838
a(I1
g163
tp839
a(I2
g145
tp840
a(I3
g145
tp841
a(I0
g143
tp842
a(I1
g163
tp843
a(I2
g145
tp844
a(I3
g145
tp845
a(I0
g145
tp846
a(I1
g163
tp847
a(I2
g145
tp848
a(I3
g145
tp849
a(I0
g125
tp850
a(I1
g163
tp851
a(I2
g143
tp852
a(I3
g145
tp853
a(I0
g127
tp854
a(I1
g163
tp855
a(I2
g143
tp856
a(I3
g143
tp857
a(I0
g125
tp858
a(I1
g163
tp859
a(I2
g143
tp860
a(I3
g143
tp861
a(I0
g125
tp862
a(I1
g125
tp863
a(I2
g143
tp864
a(I3
g143
tp865
a(I0
g127
tp866
a(I1
g127
tp867
a(I2
g163
tp868
a(I3
g145
tp869
a(I0
g127
tp870
a(I1
g163
tp871
a(I2
g145
tp872
a(I3
g145
tp873
a(I0
g125
tp874
a(I1
g163
tp875
a(I2
g145
tp876
a(I3
g145
tp877
a(I0
g125
tp878
a(I1
g125
tp879
a(I2
g125
tp880
a(I3
g143
tp881
a(I0
g127
tp882
a(I1
g127
tp883
a(I2
g125
tp884
a(I3
g143
tp885
a(I0
g127
tp886
a(I1
g163
tp887
a(I2
g143
tp888
a(I3
g143
tp889
a(I0
g143
tp890
a(I1
g163
tp891
a(I2
g143
tp892
a(I3
g143
tp893
a(I0
g145
tp894
a(I1
g163
tp895
a(I2
g143
tp896
a(I3
g143
tp897
a(I0
g125
tp898
a(I1
g163
tp899
a(I2
g143
tp900
a(I3
g143
tp901
a(I0
g127
tp902
a(I1
g163
tp903
a(I2
g143
tp904
a(I3
g143
tp905
a(I0
g143
tp906
a(I1
g163
tp907
a(I2
g143
tp908
a(I3
g143
tp909
a(I0
g145
tp910
a(I1
g163
tp911
a(I2
g143
tp912
a(I3
g143
tp913
a(I0
g143
tp914
a(I1
g163
tp915
a(I2
g143
tp916
a(I3
g127
tp917
a(I0
g145
tp918
a(I1
g163
tp919
a(I2
g143
tp920
a(I3
g127
tp921
a(I0
g143
tp922
a(I1
g163
tp923
a(I2
g143
tp924
a(I3
g143
tp925
a(I0
g145
tp926
a(I1
g163
tp927
a(I2
g145
tp928
a(I3
g127
tp929
a(I0
g143
tp930
a(I1
g163
tp931
a(I2
g145
tp932
a(I3
g127
tp933
a(I0
g145
tp934
a(I1
g163
tp935
a(I2
g145
tp936
a(I3
g127
tp937
a(I0
g143
tp938
a(I1
g163
tp939
a(I2
g145
tp940
a(I3
g127
tp941
a(I0
g145
tp942
a(I1
g163
tp943
a(I2
g145
tp944
a(I3
g127
tp945
a(I0
g143
tp946
a(I1
g163
tp947
a(I2
g145
tp948
a(I3
g127
tp949
a(I0
g145
tp950
a(I1
g163
tp951
a(I2
g145
tp952
a(I3
g127
tp953
a(I0
g143
tp954
a(I1
g163
tp955
a(I2
g145
tp956
a(I3
g127
tp957
a(I0
g145
tp958
a(I1
g163
tp959
a(I2
g145
tp960
a(I3
g127
tp961
a(I0
g143
tp962
a(I1
g163
tp963
a(I2
g145
tp964
a(I3
g127
tp965
a(I0
g145
tp966
a(I1
g163
tp967
a(I2
g127
tp968
a(I3
g127
tp969
a(I0
g143
tp970
a(I1
g163
tp971
a(I2
g127
tp972
a(I3
g127
tp973
a(I0
g145
tp974
a(I1
g163
tp975
a(I2
g145
tp976
a(I3
g127
tp977
a(I0
g143
tp978
a(I1
g163
tp979
a(I2
g145
tp980
a(I3
g145
tp981
a(I0
g145
tp982
a(I1
g163
tp983
a(I2
g145
tp984
a(I3
g145
tp985
a(I0
g143
tp986
a(I1
g163
tp987
a(I2
g143
tp988
a(I3
g145
tp989
a(I0
g145
tp990
a(I1
g163
tp991
a(I2
g143
tp992
a(I3
g145
tp993
a(I0
g125
tp994
a(I1
g163
tp995
a(I2
g143
tp996
a(I3
g145
tp997
a(I0
g127
tp998
a(I1
g163
tp999
a(I2
g143
tp1000
a(I3
g145
tp1001
a(I0
g143
tp1002
a(I1
g163
tp1003
a(I2
g143
tp1004
a(I3
g145
tp1005
a(I0
g145
tp1006
a(I1
g163
tp1007
a(I2
g127
tp1008
a(I3
g125
tp1009
a(I0
g143
tp1010
a(I1
g163
tp1011
a(I2
g127
tp1012
a(I3
g125
tp1013
a(I0
g145
tp1014
a(I1
g163
tp1015
a(I2
g145
tp1016
a(I3
g125
tp1017
a(I0
g143
tp1018
a(I1
g163
tp1019
a(I2
g145
tp1020
a(I3
g125
tp1021
a(I0
g145
tp1022
a(I1
g163
tp1023
a(I2
g145
tp1024
a(I3
g145
tp1025
a(I0
g143
tp1026
a(I1
g163
tp1027
a(I2
g143
tp1028
a(I3
g145
tp1029
a(I0
g145
tp1030
a(I1
g163
tp1031
a(I2
g127
tp1032
a(I3
g125
tp1033
a(I0
g125
tp1034
a(I1
g163
tp1035
a(I2
g127
tp1036
a(I3
g127
tp1037
a(I0
g127
tp1038
a(I1
g163
tp1039
a(I2
g127
tp1040
a(I3
g143
tp1041
a(I0
g143
tp1042
a(I1
g163
tp1043
a(I2
g145
tp1044
a(I3
g143
tp1045
a(I0
g145
tp1046
a(I1
g163
tp1047
a(I2
g143
tp1048
a(I3
g125
tp1049
a(I0
g143
tp1050
a(I1
g163
tp1051
a(I2
g127
tp1052
a(I3
g125
tp1053
a(I0
g145
tp1054
a(I1
g163
tp1055
a(I2
g127
tp1056
a(I3
g125
tp1057
a(I0
g125
tp1058
a(I1
g163
tp1059
a(I2
g127
tp1060
a(I3
g125
tp1061
a(I0
g125
tp1062
a(I1
g125
tp1063
a(I2
g143
tp1064
a(I3
g125
tp1065
a(I0
g143
tp1066
a(I1
g125
tp1067
a(I2
g143
tp1068
a(I3
g125
tp1069
a(I0
g145
tp1070
a(I1
g163
tp1071
a(I2
g145
tp1072
a(I3
g125
tp1073
a(I0
g143
tp1074
a(I1
g163
tp1075
a(I2
g127
tp1076
a(I3
g127
tp1077
a(I0
g145
tp1078
a(I1
g163
tp1079
a(I2
g127
tp1080
a(I3
g145
tp1081
a(I0
g127
tp1082
a(I1
g127
tp1083
a(I2
g143
tp1084
a(I3
g145
tp1085
a(I0
g127
tp1086
a(I1
g127
tp1087
a(I2
g145
tp1088
a(I3
g125
tp1089
a(I0
g125
tp1090
a(I1
g163
tp1091
a(I2
g145
tp1092
a(I3
g127
tp1093
a(I0
g125
tp1094
a(I1
g125
tp1095
a(I2
g145
tp1096
a(I3
g127
tp1097
a(I0
g143
tp1098
a(I1
g125
tp1099
a(I2
g125
tp1100
a(I3
g127
tp1101
a(I0
g145
tp1102
a(I1
g163
tp1103
a(I2
g125
tp1104
a(I3
g127
tp1105
a(I0
g127
tp1106
a(I1
g127
tp1107
a(I2
g145
tp1108
a(I3
g125
tp1109
a(I0
g125
tp1110
a(I1
g125
tp1111
a(I2
g145
tp1112
a(I3
g125
tp1113
a(I0
g143
tp1114
a(I1
g163
tp1115
a(I2
g125
tp1116
a(I3
g125
tp1117
a(I0
g145
tp1118
a(I1
g163
tp1119
a(I2
g125
tp1120
a(I3
g143
tp1121
a(I0
g143
tp1122
a(I1
g163
tp1123
a(I2
g127
tp1124
a(I3
g143
tp1125
a(I0
g145
tp1126
a(I1
g163
tp1127
a(I2
g127
tp1128
a(I3
g127
tp1129
a(I0
g127
tp1130
a(I1
g127
tp1131
a(I2
g143
tp1132
a(I3
g127
tp1133
a(I0
g127
tp1134
a(I1
g127
tp1135
a(I2
g143
tp1136
a(I3
g127
tp1137
a(I0
g143
tp1138
a(I1
g163
tp1139
a(I2
g143
tp1140
a(I3
g127
tp1141
a(I0
g145
tp1142
a(I1
g163
tp1143
a(I2
g125
tp1144
a(I3
g127
tp1145
a(I0
g143
tp1146
a(I1
g163
tp1147
a(I2
g125
tp1148
a(I3
g127
tp1149
a(I0
g145
tp1150
a(I1
g163
tp1151
a(I2
g125
tp1152
a(I3
g145
tp1153
a(I0
g125
tp1154
a(I1
g163
tp1155
a(I2
g163
tp1156
a(I3
g145
tp1157
a(I0
g125
tp1158
a(I1
g125
tp1159
a(I2
g145
tp1160
a(I3
g127
tp1161
a(I0
g127
tp1162
a(I1
g127
tp1163
a(I2
g143
tp1164
a(I3
g127
tp1165
a(I0
g127
tp1166
a(I1
g163
tp1167
a(I2
g125
tp1168
a(I3
g127
tp1169
a(I0
g143
tp1170
a(I1
g163
tp1171
a(I2
g125
tp1172
a(I3
g145
tp1173
a(I0
g145
tp1174
a(I1
g163
tp1175
a(I2
g145
tp1176
a(I3
g145
tp1177
a(I0
g143
tp1178
a(I1
g163
tp1179
a(I2
g125
tp1180
a(I3
g125
tp1181
a(I0
g145
tp1182
a(I1
g163
tp1183
a(I2
g143
tp1184
a(I3
g125
tp1185
a(I0
g125
tp1186
a(I1
g163
tp1187
a(I2
g127
tp1188
a(I3
g145
tp1189
a(I0
g127
tp1190
a(I1
g163
tp1191
a(I2
g127
tp1192
a(I3
g125
tp1193
a(I0
g125
tp1194
a(I1
g163
tp1195
a(I2
g127
tp1196
a(I3
g127
tp1197
a(I0
g127
tp1198
a(I1
g163
tp1199
a(I2
g127
tp1200
a(I3
g143
tp1201
a(I0
g125
tp1202
a(I1
g163
tp1203
a(I2
g127
tp1204
a(I3
g127
tp1205
a(I0
g125
tp1206
a(I1
g125
tp1207
a(I2
g127
tp1208
a(I3
g127
tp1209
a(I0
g127
tp1210
a(I1
g127
tp1211
a(I2
g143
tp1212
a(I3
g143
tp1213
a(I0
g127
tp1214
a(I1
g163
tp1215
a(I2
g143
tp1216
a(I3
g143
tp1217
a(I0
g125
tp1218
a(I1
g163
tp1219
a(I2
g145
tp1220
a(I3
g145
tp1221
a(I0
g125
tp1222
a(I1
g125
tp1223
a(I2
g145
tp1224
a(I3
g145
tp1225
a(I0
g127
tp1226
a(I1
g127
tp1227
a(I2
g125
tp1228
a(I3
g125
tp1229
a(I0
g125
tp1230
a(I1
g125
tp1231
a(I2
g125
tp1232
a(I3
g125
tp1233
a(I0
g127
tp1234
a(I1
g127
tp1235
a(I2
g125
tp1236
a(I3
g145
tp1237
a(I0
g125
tp1238
a(I1
g125
tp1239
a(I2
g163
tp1240
a(I3
g125
tp1241
a(I0
g127
tp1242
a(I1
g127
tp1243
a(I2
g127
tp1244
a(I3
g127
tp1245
a(I0
g127
tp1246
a(I1
g163
tp1247
a(I2
g127
tp1248
a(I3
g143
tp1249
a(I0
g143
tp1250
a(I1
g163
tp1251
a(I2
g127
tp1252
a(I3
g127
tp1253
a(I0
g145
tp1254
a(I1
g163
tp1255
a(I2
g143
tp1256
a(I3
g127
tp1257
a(I0
g125
tp1258
a(I1
g163
tp1259
a(I2
g127
tp1260
a(I3
g143
tp1261
a(I0
g127
tp1262
a(I1
g163
tp1263
a(I2
g127
tp1264
a(I3
g143
tp1265
a(I0
g143
tp1266
a(I1
g163
tp1267
a(I2
g143
tp1268
a(I3
g127
tp1269
a(I0
g145
tp1270
a(I1
g163
tp1271
a(I2
g127
tp1272
a(I3
g143
tp1273
a(I0
g125
tp1274
a(I1
g163
tp1275
a(I2
g127
tp1276
a(I3
g143
tp1277
a(I0
g127
tp1278
a(I1
g163
tp1279
a(I2
g143
tp1280
a(I3
g143
tp1281
a(I0
g143
tp1282
a(I1
g163
tp1283
a(I2
g143
tp1284
a(I3
g143
tp1285
a(I0
g145
tp1286
a(I1
g163
tp1287
a(I2
g127
tp1288
a(I3
g143
tp1289
a(I0
g125
tp1290
a(I1
g163
tp1291
a(I2
g143
tp1292
a(I3
g143
tp1293
a(I0
g127
tp1294
a(I1
g163
tp1295
a(I2
g143
tp1296
a(I3
g143
tp1297
a(I0
g125
tp1298
a(I1
g163
tp1299
a(I2
g143
tp1300
a(I3
g143
tp1301
a(I0
g125
tp1302
a(I1
g125
tp1303
a(I2
g143
tp1304
a(I3
g143
tp1305
a(I0
g143
tp1306
a(I1
g125
tp1307
a(I2
g145
tp1308
a(I3
g145
tp1309
a(I0
g145
tp1310
a(I1
g163
tp1311
a(I2
g143
tp1312
a(I3
g125
tp1313
a(I0
g127
tp1314
a(I1
g127
tp1315
a(I2
g143
tp1316
a(I3
g125
tp1317
a(I0
g127
tp1318
a(I1
g127
tp1319
a(I2
g143
tp1320
a(I3
g143
tp1321
a(I0
g125
tp1322
a(I1
g163
tp1323
a(I2
g145
tp1324
a(I3
g127
tp1325
a(I0
g125
tp1326
a(I1
g125
tp1327
a(I2
g145
tp1328
a(I3
g127
tp1329
asS'length'
p1330
I1200
sS'agents'
p1331
(lp1332
(igame
Agent
p1333
(dp1334
S'index'
p1335
I0
sba(igame
Agent
p1336
(dp1337
g1335
I0
sba(igame
Agent
p1338
(dp1339
g1335
I0
sba(igame
Agent
p1340
(dp1341
g1335
I0
sbasS'redTeamName'
p1342
S'Red'
p1343
s.