(dp1
S'layout'
p2
(ilayout
Layout
p3
(dp4
S'capsules'
p5
(lp6
sS'numGhosts'
p7
I4
sS'food'
p8
(igame
Grid
p9
(dp10
S'CELLS_PER_INT'
p11
I30
sS'width'
p12
I34
sS'data'
p13
(lp14
(lp15
I00
aI00
aI00
aI00
aI00
aI00
aI00
aI00
aI00
aI00
aI00
aI00
aI00
aI00
aI00
aI00
aI00
aI00
aa(lp16
I00
aI00
aI00
aI00
aI00
aI00
aI00
aI01
aI01
aI01
aI00
aI01
aI00
aI01
aI00
aI01
aI01
aI00
aa(lp17
I00
aI00
aI00
aI00
aI00
aI00
aI00
aI00
aI00
aI00
aI00
aI01
aI00
aI01
aI00
aI00
aI00
aI00
aa(lp18
I00
aI00
aI00
aI00
aI00
aI00
aI00
aI00
aI00
aI00
aI00
aI01
aI00
aI00
aI00
aI00
aI00
aI00
aa(lp19
I00
aI00
aI00
aI00
aI00
aI00
aI00
aI00
aI00
aI00
aI00
aI00
aI00
aI00
aI00
aI00
aI00
aI00
aa(lp20
I00
aI00
aI00
aI00
aI00
aI00
aI00
aI00
aI00
aI00
aI00
aI00
aI00
aI00
aI00
aI00
aI00
aI00
aa(lp21
I00
aI00
aI00
aI00
aI00
aI01
aI00
aI00
aI00
aI00
aI00
aI00
aI00
aI00
aI00
aI00
aI00
aI00
aa(lp22
I00
aI00
aI01
aI00
aI00
aI00
aI00
aI01
aI00
aI01
aI00
aI00
aI00
aI00
aI00
aI00
aI00
aI00
aa(lp23
I00
aI00
aI00
aI00
aI00
aI00
aI00
aI00
aI00
aI00
aI00
aI01
aI00
aI00
aI00
aI00
aI00
aI00
aa(lp24
I00
aI01
aI01
aI00
aI00
aI00
aI00
aI00
aI01
aI01
aI00
aI01
aI00
aI01
aI00
aI00
aI00
aI00
aa(lp25
I00
aI00
aI00
aI00
aI00
aI00
aI00
aI00
aI00
aI00
aI00
aI00
aI00
aI00
aI00
aI00
aI00
aI00
aa(lp26
I00
aI01
aI00
aI00
aI00
aI00
aI00
aI01
aI01
aI00
aI00
aI01
aI00
aI01
aI01
aI00
aI00
aI00
aa(lp27
I00
aI00
aI00
aI00
aI00
aI00
aI00
aI00
aI00
aI00
aI00
aI00
aI00
aI00
aI00
aI00
aI00
aI00
aa(lp28
I00
aI00
aI00
aI00
aI00
aI00
aI00
aI00
aI00
aI00
aI00
aI00
aI00
aI00
aI00
aI01
aI00
aI00
aa(lp29
I00
aI00
aI00
aI00
aI00
aI00
aI00
aI00
aI00
aI00
aI00
aI00
aI00
aI00
aI00
aI00
aI00
aI00
aa(lp30
I00
aI00
aI01
aI00
aI00
aI00
aI00
aI00
aI00
aI01
aI00
aI00
aI00
aI00
aI00
aI00
aI00
aI00
aa(lp31
I00
aI00
aI00
aI00
aI00
aI00
aI00
aI00
aI00
aI00
aI00
aI00
aI00
aI00
aI00
aI00
aI00
aI00
aa(lp32
I00
aI00
aI00
aI00
aI00
aI00
aI00
aI00
aI00
aI00
aI00
aI00
aI00
aI00
aI00
aI00
aI00
aI00
aa(lp33
I00
aI00
aI00
aI00
aI00
aI00
aI00
aI00
aI01
aI00
aI00
aI00
aI00
aI00
aI00
aI01
aI00
aI00
aa(lp34
I00
aI00
aI00
aI00
aI00
aI00
aI00
aI00
aI00
aI00
aI00
aI00
aI00
aI00
aI00
aI00
aI00
aI00
aa(lp35
I00
aI00
aI01
aI00
aI00
aI00
aI00
aI00
aI00
aI00
aI00
aI00
aI00
aI00
aI00
aI00
aI00
aI00
aa(lp36
I00
aI00
aI00
aI00
aI00
aI00
aI00
aI00
aI00
aI00
aI00
aI00
aI00
aI00
aI00
aI00
aI00
aI00
aa(lp37
I00
aI00
aI00
aI01
aI01
aI00
aI01
aI00
aI00
aI01
aI01
aI00
aI00
aI00
aI00
aI00
aI01
aI00
aa(lp38
I00
aI00
aI00
aI00
aI00
aI00
aI00
aI00
aI00
aI00
aI00
aI00
aI00
aI00
aI00
aI00
aI00
aI00
aa(lp39
I00
aI00
aI00
aI00
aI01
aI00
aI01
aI00
aI01
aI01
aI00
aI00
aI00
aI00
aI00
aI01
aI01
aI00
aa(lp40
I00
aI00
aI00
aI00
aI00
aI00
aI01
aI00
aI00
aI00
aI00
aI00
aI00
aI00
aI00
aI00
aI00
aI00
aa(lp41
I00
aI00
aI00
aI00
aI00
aI00
aI00
aI00
aI01
aI00
aI01
aI00
aI00
aI00
aI00
aI01
aI00
aI00
aa(lp42
I00
aI00
aI00
aI00
aI00
aI00
aI00
aI00
aI00
aI00
aI00
aI00
aI01
aI00
aI00
aI00
aI00
aI00
aa(lp43
I00
aI00
aI00
aI00
aI00
aI00
aI00
aI00
aI00
aI00
aI00
aI00
aI00
aI00
aI00
aI00
aI00
aI00
aa(lp44
I00
aI00
aI00
aI00
aI00
aI00
aI00
aI00
aI00
aI00
aI00
aI00
aI00
aI00
aI00
aI00
aI00
aI00
aa(lp45
I00
aI00
aI00
aI00
aI00
aI00
aI01
aI00
aI00
aI00
aI00
aI00
aI00
aI00
aI00
aI00
aI00
aI00
aa(lp46
I00
aI00
aI00
aI00
aI01
aI00
aI01
aI00
aI00
aI00
aI00
aI00
aI00
aI00
aI00
aI00
aI00
aI00
aa(lp47
I00
aI01
aI01
aI00
aI01
aI00
aI01
aI00
aI01
aI01
aI01
aI00
aI00
aI00
aI00
aI00
aI00
aI00
aa(lp48
I00
aI00
aI00
aI00
aI00
aI00
aI00
aI00
aI00
aI00
aI00
aI00
aI00
aI00
aI00
aI00
aI00
aI00
aasS'height'
p49
I18
sbsS'agentPositions'
p50
(lp51
(I00
(I1
I2
tp52
tp53
a(I00
(I32
I15
tp54
tp55
a(I00
(I1
I1
tp56
tp57
a(I00
(I32
I16
tp58
tp59
asg49
I18
sg12
I34
sS'walls'
p60
(igame
Grid
p61
(dp62
g11
I30
sg12
I34
sg13
(lp63
(lp64
I01
aI01
aI01
aI01
aI01
aI01
aI01
aI01
aI01
aI01
aI01
aI01
aI01
aI01
aI01
aI01
aI01
aI01
aa(lp65
I01
aI00
aI00
aI00
aI00
aI00
aI01
aI00
aI00
aI00
aI01
aI00
aI01
aI00
aI01
aI00
aI00
aI01
aa(lp66
I01
aI00
aI00
aI00
aI01
aI00
aI01
aI01
aI00
aI01
aI01
aI00
aI01
aI00
aI01
aI00
aI01
aI01
aa(lp67
I01
aI00
aI01
aI00
aI01
aI00
aI00
aI00
aI00
aI00
aI00
aI00
aI00
aI00
aI01
aI00
aI00
aI01
aa(lp68
I01
aI00
aI01
aI00
aI00
aI00
aI01
aI00
aI01
aI00
aI01
aI00
aI00
aI00
aI01
aI01
aI00
aI01
aa(lp69
I01
aI01
aI01
aI01
aI01
aI00
aI01
aI00
aI01
aI00
aI01
aI00
aI01
aI00
aI00
aI00
aI00
aI01
aa(lp70
I01
aI00
aI00
aI01
aI00
aI00
aI01
aI00
aI00
aI00
aI01
aI00
aI01
aI01
aI01
aI01
aI00
aI01
aa(lp71
I01
aI00
aI00
aI00
aI00
aI00
aI01
aI00
aI01
aI00
aI01
aI00
aI00
aI00
aI00
aI01
aI00
aI01
aa(lp72
I01
aI01
aI01
aI01
aI01
aI00
aI01
aI01
aI01
aI01
aI01
aI00
aI01
aI01
aI00
aI01
aI00
aI01
aa(lp73
I01
aI00
aI00
aI00
aI00
aI00
aI00
aI00
aI00
aI00
aI01
aI00
aI01
aI00
aI00
aI01
aI00
aI01
aa(lp74
I01
aI01
aI01
aI01
aI00
aI01
aI01
aI01
aI01
aI01
aI01
aI01
aI01
aI01
aI00
aI01
aI00
aI01
aa(lp75
I01
aI00
aI00
aI00
aI00
aI00
aI01
aI00
aI00
aI00
aI00
aI00
aI01
aI00
aI00
aI01
aI00
aI01
aa(lp76
I01
aI00
aI00
aI00
aI00
aI00
aI01
aI01
aI01
aI01
aI00
aI01
aI01
aI00
aI01
aI01
aI00
aI01
aa(lp77
I01
aI01
aI01
aI00
aI01
aI01
aI01
aI00
aI00
aI00
aI00
aI00
aI01
aI00
aI00
aI00
aI00
aI01
aa(lp78
I01
aI00
aI00
aI00
aI00
aI00
aI00
aI00
aI00
aI00
aI00
aI00
aI00
aI00
aI00
aI00
aI00
aI01
aa(lp79
I01
aI00
aI00
aI01
aI01
aI01
aI01
aI01
aI01
aI00
aI01
aI01
aI00
aI01
aI01
aI00
aI00
aI01
aa(lp80
I01
aI00
aI00
aI00
aI00
aI00
aI00
aI00
aI00
aI00
aI00
aI00
aI00
aI00
aI00
aI00
aI00
aI01
aa(lp81
I01
aI00
aI00
aI00
aI00
aI00
aI00
aI00
aI00
aI00
aI00
aI00
aI00
aI00
aI00
aI00
aI00
aI01
aa(lp82
I01
aI00
aI00
aI01
aI01
aI00
aI01
aI01
aI00
aI01
aI01
aI01
aI01
aI01
aI01
aI00
aI00
aI01
aa(lp83
I01
aI00
aI00
aI00
aI00
aI00
aI00
aI00
aI00
aI00
aI00
aI00
aI00
aI00
aI00
aI00
aI00
aI01
aa(lp84
I01
aI00
aI00
aI00
aI00
aI01
aI00
aI00
aI00
aI00
aI00
aI01
aI01
aI01
aI00
aI01
aI01
aI01
aa(lp85
I01
aI00
aI01
aI01
aI00
aI01
aI01
aI00
aI01
aI01
aI01
aI01
aI00
aI00
aI00
aI00
aI00
aI01
aa(lp86
I01
aI00
aI01
aI00
aI00
aI01
aI00
aI00
aI00
aI00
aI00
aI01
aI00
aI00
aI00
aI00
aI00
aI01
aa(lp87
I01
aI00
aI01
aI00
aI01
aI01
aI01
aI01
aI01
aI01
aI01
aI01
aI01
aI00
aI01
aI01
aI01
aI01
aa(lp88
I01
aI00
aI01
aI00
aI00
aI01
aI00
aI01
aI00
aI00
aI00
aI00
aI00
aI00
aI00
aI00
aI00
aI01
aa(lp89
I01
aI00
aI01
aI00
aI01
aI01
aI00
aI01
aI01
aI01
aI01
aI01
aI00
aI01
aI01
aI01
aI01
aI01
aa(lp90
I01
aI00
aI01
aI00
aI00
aI00
aI00
aI01
aI00
aI01
aI00
aI01
aI00
aI00
aI00
aI00
aI00
aI01
aa(lp91
I01
aI00
aI01
aI01
aI01
aI01
aI00
aI01
aI00
aI00
aI00
aI01
aI00
aI00
aI01
aI00
aI00
aI01
aa(lp92
I01
aI00
aI00
aI00
aI00
aI01
aI00
aI01
aI00
aI01
aI00
aI01
aI00
aI01
aI01
aI01
aI01
aI01
aa(lp93
I01
aI00
aI01
aI01
aI00
aI00
aI00
aI01
aI00
aI01
aI00
aI01
aI00
aI00
aI00
aI01
aI00
aI01
aa(lp94
I01
aI00
aI00
aI01
aI00
aI00
aI00
aI00
aI00
aI00
aI00
aI00
aI00
aI01
aI00
aI01
aI00
aI01
aa(lp95
I01
aI01
aI00
aI01
aI00
aI01
aI00
aI01
aI01
aI00
aI01
aI01
aI00
aI01
aI00
aI00
aI00
aI01
aa(lp96
I01
aI00
aI00
aI01
aI00
aI01
aI00
aI01
aI00
aI00
aI00
aI01
aI00
aI00
aI00
aI00
aI00
aI01
aa(lp97
I01
aI01
aI01
aI01
aI01
aI01
aI01
aI01
aI01
aI01
aI01
aI01
aI01
aI01
aI01
aI01
aI01
aI01
aasg49
I18
sbsS'totalFood'
p98
I60
sS'layoutText'
p99
(lp100
S'%%%%%%%%%%%%%%%%%%%%%%%%%%%%%%%%%%'
p101
aS'%.%                 % .%.%  %   4%'
p102
aS'%.  % %%%%%%%.    . %  %.%. %%% 2%'
p103
aS'%%%%% %    .%  %  %    % % %%    %'
p104
aS'%..   % %.%.   %  % %    %  % %% %'
p105
aS'%%%  %% %%%%%%    % %  %   .     %'
p106
aS'%...    ..%.%  %  % %%%% %%%%% %%%'
p107
aS'%%% %%%%%%%    %  %  %.% %.    %.%'
p108
aS'%.%    .%.% %  .  %  %.%.%% %%  .%'
p109
aS'%.  %% %%.%.%  %  .  % %.%.    %.%'
p110
aS'%.%    .% %.%  %  %    %%%%%%% %%%'
p111
aS'%%% %%%%% %%%% %  %  %.%..    ...%'
p112
aS'%     .   %  % %    %%%%%% %%  %%%'
p113
aS'% %% %  %    % %  %   .%.% %   ..%'
p114
aS'%    %% % %    %  %  %.    % %%%%%'
p115
aS'%1 %%% .%.%  % .    .%%%%%%% %  .%'
p116
aS'%3   %  %.%. %                 %.%'
p117
aS'%%%%%%%%%%%%%%%%%%%%%%%%%%%%%%%%%%'
p118
asbsS'blueTeamName'
p119
S'Blue'
p120
sS'actions'
p121
(lp122
(I0
S'East'
p123
tp124
a(I1
S'South'
p125
tp126
a(I2
S'North'
p127
tp128
a(I3
g125
tp129
a(I0
g127
tp130
a(I1
g125
tp131
a(I2
g127
tp132
a(I3
g125
tp133
a(I0
g123
tp134
a(I1
g125
tp135
a(I2
g127
tp136
a(I3
g125
tp137
a(I0
g123
tp138
a(I1
S'West'
p139
tp140
a(I2
g127
tp141
a(I3
g125
tp142
a(I0
g127
tp143
a(I1
g139
tp144
a(I2
g123
tp145
a(I3
g139
tp146
a(I0
g127
tp147
a(I1
g139
tp148
a(I2
g123
tp149
a(I3
g139
tp150
a(I0
g123
tp151
a(I1
g139
tp152
a(I2
g127
tp153
a(I3
g139
tp154
a(I0
g123
tp155
a(I1
g139
tp156
a(I2
g127
tp157
a(I3
g139
tp158
a(I0
g123
tp159
a(I1
g139
tp160
a(I2
g127
tp161
a(I3
g139
tp162
a(I0
g123
tp163
a(I1
g139
tp164
a(I2
g127
tp165
a(I3
g139
tp166
a(I0
g123
tp167
a(I1
g139
tp168
a(I2
g127
tp169
a(I3
g139
tp170
a(I0
g125
tp171
a(I1
g127
tp172
a(I2
g127
tp173
a(I3
g139
tp174
a(I0
g123
tp175
a(I1
g139
tp176
a(I2
g123
tp177
a(I3
g127
tp178
a(I0
g123
tp179
a(I1
g139
tp180
a(I2
g123
tp181
a(I3
g139
tp182
a(I0
g123
tp183
a(I1
g127
tp184
a(I2
g123
tp185
a(I3
g139
tp186
a(I0
g125
tp187
a(I1
g139
tp188
a(I2
g123
tp189
a(I3
g127
tp190
a(I0
g123
tp191
a(I1
g139
tp192
a(I2
g127
tp193
a(I3
g139
tp194
a(I0
g123
tp195
a(I1
g139
tp196
a(I2
g127
tp197
a(I3
g139
tp198
a(I0
g125
tp199
a(I1
g127
tp200
a(I2
g127
tp201
a(I3
g139
tp202
a(I0
g123
tp203
a(I1
g139
tp204
a(I2
g123
tp205
a(I3
g127
tp206
a(I0
g123
tp207
a(I1
g139
tp208
a(I2
g123
tp209
a(I3
g139
tp210
a(I0
g123
tp211
a(I1
g139
tp212
a(I2
g123
tp213
a(I3
g139
tp214
a(I0
g123
tp215
a(I1
g139
tp216
a(I2
g123
tp217
a(I3
g139
tp218
a(I0
g123
tp219
a(I1
g139
tp220
a(I2
g125
tp221
a(I3
g139
tp222
a(I0
g123
tp223
a(I1
g139
tp224
a(I2
g123
tp225
a(I3
g123
tp226
a(I0
g127
tp227
a(I1
g125
tp228
a(I2
g123
tp229
a(I3
g125
tp230
a(I0
g127
tp231
a(I1
g127
tp232
a(I2
g123
tp233
a(I3
g123
tp234
a(I0
g123
tp235
a(I1
g123
tp236
a(I2
g127
tp237
a(I3
g125
tp238
a(I0
g123
tp239
a(I1
g123
tp240
a(I2
g127
tp241
a(I3
g125
tp242
a(I0
g125
tp243
a(I1
g123
tp244
a(I2
g123
tp245
a(I3
g125
tp246
a(I0
g123
tp247
a(I1
g125
tp248
a(I2
g123
tp249
a(I3
g125
tp250
a(I0
g123
tp251
a(I1
g125
tp252
a(I2
g123
tp253
a(I3
g125
tp254
a(I0
g127
tp255
a(I1
g123
tp256
a(I2
g123
tp257
a(I3
g127
tp258
a(I0
g125
tp259
a(I1
g127
tp260
a(I2
g123
tp261
a(I3
g127
tp262
a(I0
g139
tp263
a(I1
g127
tp264
a(I2
g125
tp265
a(I3
g127
tp266
a(I0
g139
tp267
a(I1
g123
tp268
a(I2
g123
tp269
a(I3
g127
tp270
a(I0
g127
tp271
a(I1
g123
tp272
a(I2
g123
tp273
a(I3
g125
tp274
a(I0
g139
tp275
a(I1
g125
tp276
a(I2
g123
tp277
a(I3
g125
tp278
a(I0
g139
tp279
a(I1
g123
tp280
a(I2
g127
tp281
a(I3
g125
tp282
a(I0
g139
tp283
a(I1
g123
tp284
a(I2
g127
tp285
a(I3
g125
tp286
a(I0
g127
tp287
a(I1
g127
tp288
a(I2
S'Stop'
p289
tp290
a(I3
g127
tp291
a(I0
g139
tp292
a(I1
g127
tp293
a(I2
g125
tp294
a(I3
g127
tp295
a(I0
g139
tp296
a(I1
g125
tp297
a(I2
g125
tp298
a(I3
g127
tp299
a(I0
g139
tp300
a(I1
g125
tp301
a(I2
g125
tp302
a(I3
g125
tp303
a(I0
g123
tp304
a(I1
g125
tp305
a(I2
g123
tp306
a(I3
g125
tp307
a(I0
g123
tp308
a(I1
g123
tp309
a(I2
g123
tp310
a(I3
g125
tp311
a(I0
g123
tp312
a(I1
g123
tp313
a(I2
g125
tp314
a(I3
g139
tp315
a(I0
g127
tp316
a(I1
g123
tp317
a(I2
g123
tp318
a(I3
g139
tp319
a(I0
g127
tp320
a(I1
g125
tp321
a(I2
g123
tp322
a(I3
g139
tp323
a(I0
g127
tp324
a(I1
g123
tp325
a(I2
g123
tp326
a(I3
g127
tp327
a(I0
g139
tp328
a(I1
g123
tp329
a(I2
g123
tp330
a(I3
g139
tp331
a(I0
g123
tp332
a(I1
g123
tp333
a(I2
g123
tp334
a(I3
g139
tp335
a(I0
g123
tp336
a(I1
g123
tp337
a(I2
g123
tp338
a(I3
g139
tp339
a(I0
g125
tp340
a(I1
g123
tp341
a(I2
g125
tp342
a(I3
g127
tp343
a(I0
g123
tp344
a(I1
g123
tp345
a(I2
g125
tp346
a(I3
g125
tp347
a(I0
g123
tp348
a(I1
g125
tp349
a(I2
g125
tp350
a(I3
g125
tp351
a(I0
g125
tp352
a(I1
g125
tp353
a(I2
g125
tp354
a(I3
g125
tp355
a(I0
g127
tp356
a(I1
g125
tp357
a(I2
g125
tp358
a(I3
g125
tp359
a(I0
g127
tp360
a(I1
g125
tp361
a(I2
g125
tp362
a(I3
g127
tp363
a(I0
g127
tp364
a(I1
g125
tp365
a(I2
g139
tp366
a(I3
g127
tp367
a(I0
g127
tp368
a(I1
g125
tp369
a(I2
g125
tp370
a(I3
g127
tp371
a(I0
g125
tp372
a(I1
g125
tp373
a(I2
g127
tp374
a(I3
g123
tp375
a(I0
g125
tp376
a(I1
g127
tp377
a(I2
g125
tp378
a(I3
g123
tp379
a(I0
g125
tp380
a(I1
g125
tp381
a(I2
g127
tp382
a(I3
g125
tp383
a(I0
g139
tp384
a(I1
g127
tp385
a(I2
g125
tp386
a(I3
g123
tp387
a(I0
g139
tp388
a(I1
g125
tp389
a(I2
g127
tp390
a(I3
g123
tp391
a(I0
g139
tp392
a(I1
g127
tp393
a(I2
g125
tp394
a(I3
g123
tp395
a(I0
g125
tp396
a(I1
g125
tp397
a(I2
g127
tp398
a(I3
g123
tp399
a(I0
g125
tp400
a(I1
g127
tp401
a(I2
g125
tp402
a(I3
g125
tp403
a(I0
g139
tp404
a(I1
g125
tp405
a(I2
g127
tp406
a(I3
g125
tp407
a(I0
g139
tp408
a(I1
g127
tp409
a(I2
g125
tp410
a(I3
g125
tp411
a(I0
g139
tp412
a(I1
g125
tp413
a(I2
g127
tp414
a(I3
g127
tp415
a(I0
g123
tp416
a(I1
g127
tp417
a(I2
g125
tp418
a(I3
g125
tp419
a(I0
g123
tp420
a(I1
g125
tp421
a(I2
g125
tp422
a(I3
g125
tp423
a(I0
g123
tp424
a(I1
g125
tp425
a(I2
g127
tp426
a(I3
g125
tp427
a(I0
g125
tp428
a(I1
g127
tp429
a(I2
g125
tp430
a(I3
g125
tp431
a(I0
g123
tp432
a(I1
g125
tp433
a(I2
g127
tp434
a(I3
g125
tp435
a(I0
g123
tp436
a(I1
g127
tp437
a(I2
g125
tp438
a(I3
g139
tp439
a(I0
g123
tp440
a(I1
g125
tp441
a(I2
g127
tp442
a(I3
g139
tp443
a(I0
g125
tp444
a(I1
g127
tp445
a(I2
g125
tp446
a(I3
g139
tp447
a(I0
g123
tp448
a(I1
g125
tp449
a(I2
g127
tp450
a(I3
g127
tp451
a(I0
g123
tp452
a(I1
g127
tp453
a(I2
g125
tp454
a(I3
g139
tp455
a(I0
g123
tp456
a(I1
g125
tp457
a(I2
g127
tp458
a(I3
g139
tp459
a(I0
g123
tp460
a(I1
g127
tp461
a(I2
g125
tp462
a(I3
g125
tp463
a(I0
g127
tp464
a(I1
g125
tp465
a(I2
g127
tp466
a(I3
g125
tp467
a(I0
g127
tp468
a(I1
g127
tp469
a(I2
g125
tp470
a(I3
g139
tp471
a(I0
g127
tp472
a(I1
g125
tp473
a(I2
g127
tp474
a(I3
g127
tp475
a(I0
g139
tp476
a(I1
g127
tp477
a(I2
g125
tp478
a(I3
g127
tp479
a(I0
g139
tp480
a(I1
g125
tp481
a(I2
g127
tp482
a(I3
g127
tp483
a(I0
g123
tp484
a(I1
g127
tp485
a(I2
g125
tp486
a(I3
g139
tp487
a(I0
g123
tp488
a(I1
g125
tp489
a(I2
g127
tp490
a(I3
g139
tp491
a(I0
g125
tp492
a(I1
g127
tp493
a(I2
g125
tp494
a(I3
g125
tp495
a(I0
g125
tp496
a(I1
g125
tp497
a(I2
g127
tp498
a(I3
g125
tp499
a(I0
g125
tp500
a(I1
g127
tp501
a(I2
g125
tp502
a(I3
g125
tp503
a(I0
g139
tp504
a(I1
g125
tp505
a(I2
g139
tp506
a(I3
g127
tp507
a(I0
g139
tp508
a(I1
g139
tp509
a(I2
g125
tp510
a(I3
g127
tp511
a(I0
g139
tp512
a(I1
g139
tp513
a(I2
g125
tp514
a(I3
g127
tp515
a(I0
g139
tp516
a(I1
g125
tp517
a(I2
g125
tp518
a(I3
g123
tp519
a(I0
g127
tp520
a(I1
g125
tp521
a(I2
g139
tp522
a(I3
g123
tp523
a(I0
g139
tp524
a(I1
g125
tp525
a(I2
g139
tp526
a(I3
g125
tp527
a(I0
g139
tp528
a(I1
g139
tp529
a(I2
g139
tp530
a(I3
g123
tp531
a(I0
g139
tp532
a(I1
g139
tp533
a(I2
g139
tp534
a(I3
g123
tp535
a(I0
g125
tp536
a(I1
g139
tp537
a(I2
g139
tp538
a(I3
g123
tp539
a(I0
g125
tp540
a(I1
g139
tp541
a(I2
g139
tp542
a(I3
g125
tp543
a(I0
g139
tp544
a(I1
g139
tp545
a(I2
g139
tp546
a(I3
g123
tp547
a(I0
g139
tp548
a(I1
g139
tp549
a(I2
g139
tp550
a(I3
g123
tp551
a(I0
g139
tp552
a(I1
g139
tp553
a(I2
g139
tp554
a(I3
g125
tp555
a(I0
g123
tp556
a(I1
g139
tp557
a(I2
g139
tp558
a(I3
g125
tp559
a(I0
g127
tp560
a(I1
g139
tp561
a(I2
g139
tp562
a(I3
g125
tp563
a(I0
g127
tp564
a(I1
g139
tp565
a(I2
g139
tp566
a(I3
g125
tp567
a(I0
g127
tp568
a(I1
g127
tp569
a(I2
g127
tp570
a(I3
g139
tp571
a(I0
g123
tp572
a(I1
g123
tp573
a(I2
g123
tp574
a(I3
g139
tp575
a(I0
g123
tp576
a(I1
g139
tp577
a(I2
g127
tp578
a(I3
g139
tp579
a(I0
g127
tp580
a(I1
g139
tp581
a(I2
g127
tp582
a(I3
g139
tp583
a(I0
g127
tp584
a(I1
g127
tp585
a(I2
g127
tp586
a(I3
g139
tp587
a(I0
g127
tp588
a(I1
g127
tp589
a(I2
g123
tp590
a(I3
g139
tp591
a(I0
g127
tp592
a(I1
g127
tp593
a(I2
g123
tp594
a(I3
g139
tp595
a(I0
g127
tp596
a(I1
g123
tp597
a(I2
g125
tp598
a(I3
g139
tp599
a(I0
g127
tp600
a(I1
g123
tp601
a(I2
g123
tp602
a(I3
g127
tp603
a(I0
g127
tp604
a(I1
g125
tp605
a(I2
g123
tp606
a(I3
g139
tp607
a(I0
g125
tp608
a(I1
g123
tp609
a(I2
g123
tp610
a(I3
g139
tp611
a(I0
g125
tp612
a(I1
g123
tp613
a(I2
g125
tp614
a(I3
g127
tp615
a(I0
g127
tp616
a(I1
g123
tp617
a(I2
g123
tp618
a(I3
g139
tp619
a(I0
g125
tp620
a(I1
g125
tp621
a(I2
g123
tp622
a(I3
g139
tp623
a(I0
g125
tp624
a(I1
g123
tp625
a(I2
g123
tp626
a(I3
g139
tp627
a(I0
g125
tp628
a(I1
g123
tp629
a(I2
g123
tp630
a(I3
g127
tp631
a(I0
g127
tp632
a(I1
g123
tp633
a(I2
g127
tp634
a(I3
g139
tp635
a(I0
g127
tp636
a(I1
g123
tp637
a(I2
g127
tp638
a(I3
g139
tp639
a(I0
g127
tp640
a(I1
g127
tp641
a(I2
g127
tp642
a(I3
g139
tp643
a(I0
g127
tp644
a(I1
g127
tp645
a(I2
g123
tp646
a(I3
g139
tp647
a(I0
g127
tp648
a(I1
g127
tp649
a(I2
g123
tp650
a(I3
g139
tp651
a(I0
g127
tp652
a(I1
g123
tp653
a(I2
g123
tp654
a(I3
g125
tp655
a(I0
g123
tp656
a(I1
g123
tp657
a(I2
g123
tp658
a(I3
g125
tp659
a(I0
g123
tp660
a(I1
g123
tp661
a(I2
g127
tp662
a(I3
g139
tp663
a(I0
g123
tp664
a(I1
g123
tp665
a(I2
g127
tp666
a(I3
g139
tp667
a(I0
g125
tp668
a(I1
g127
tp669
a(I2
g127
tp670
a(I3
g139
tp671
a(I0
g123
tp672
a(I1
g127
tp673
a(I2
g127
tp674
a(I3
g127
tp675
a(I0
g123
tp676
a(I1
g127
tp677
a(I2
g139
tp678
a(I3
g139
tp679
a(I0
g127
tp680
a(I1
g127
tp681
a(I2
g139
tp682
a(I3
g139
tp683
a(I0
g127
tp684
a(I1
g139
tp685
a(I2
g139
tp686
a(I3
g125
tp687
a(I0
g127
tp688
a(I1
g139
tp689
a(I2
g125
tp690
a(I3
g127
tp691
a(I0
g125
tp692
a(I1
g139
tp693
a(I2
g125
tp694
a(I3
g139
tp695
a(I0
g125
tp696
a(I1
g125
tp697
a(I2
g123
tp698
a(I3
g139
tp699
a(I0
g125
tp700
a(I1
g125
tp701
a(I2
g123
tp702
a(I3
g125
tp703
a(I0
g125
tp704
a(I1
g123
tp705
a(I2
g123
tp706
a(I3
g125
tp707
a(I0
g125
tp708
a(I1
g123
tp709
a(I2
g127
tp710
a(I3
g125
tp711
a(I0
g125
tp712
a(I1
g123
tp713
a(I2
g127
tp714
a(I3
g123
tp715
a(I0
g125
tp716
a(I1
g127
tp717
a(I2
g139
tp718
a(I3
g123
tp719
a(I0
g125
tp720
a(I1
g127
tp721
a(I2
g139
tp722
a(I3
g139
tp723
a(I0
g127
tp724
a(I1
g139
tp725
a(I2
g139
tp726
a(I3
g139
tp727
a(I0
g127
tp728
a(I1
g139
tp729
a(I2
g125
tp730
a(I3
g139
tp731
a(I0
g127
tp732
a(I1
g139
tp733
a(I2
g125
tp734
a(I3
g139
tp735
a(I0
g127
tp736
a(I1
g125
tp737
a(I2
g123
tp738
a(I3
g139
tp739
a(I0
g127
tp740
a(I1
g125
tp741
a(I2
g123
tp742
a(I3
g139
tp743
a(I0
g139
tp744
a(I1
g123
tp745
a(I2
g123
tp746
a(I3
g139
tp747
a(I0
g139
tp748
a(I1
g123
tp749
a(I2
g127
tp750
a(I3
g139
tp751
a(I0
g139
tp752
a(I1
g123
tp753
a(I2
g127
tp754
a(I3
g123
tp755
a(I0
g127
tp756
a(I1
g127
tp757
a(I2
g139
tp758
a(I3
g123
tp759
a(I0
g139
tp760
a(I1
g127
tp761
a(I2
g139
tp762
a(I3
g127
tp763
a(I0
g139
tp764
a(I1
g139
tp765
a(I2
g139
tp766
a(I3
g127
tp767
a(I0
g127
tp768
a(I1
g139
tp769
a(I2
g125
tp770
a(I3
g139
tp771
a(I0
g139
tp772
a(I1
g139
tp773
a(I2
g125
tp774
a(I3
g139
tp775
a(I0
g139
tp776
a(I1
g125
tp777
a(I2
g123
tp778
a(I3
g123
tp779
a(I0
g139
tp780
a(I1
g125
tp781
a(I2
g123
tp782
a(I3
g123
tp783
a(I0
g139
tp784
a(I1
g123
tp785
a(I2
g123
tp786
a(I3
g125
tp787
a(I0
g139
tp788
a(I1
g123
tp789
a(I2
g127
tp790
a(I3
g125
tp791
a(I0
g139
tp792
a(I1
g123
tp793
a(I2
g127
tp794
a(I3
g125
tp795
a(I0
g127
tp796
a(I1
g127
tp797
a(I2
g127
tp798
a(I3
g125
tp799
a(I0
g139
tp800
a(I1
g127
tp801
a(I2
g127
tp802
a(I3
g125
tp803
a(I0
g139
tp804
a(I1
g127
tp805
a(I2
g139
tp806
a(I3
g139
tp807
a(I0
g139
tp808
a(I1
g127
tp809
a(I2
g139
tp810
a(I3
g139
tp811
a(I0
g139
tp812
a(I1
g139
tp813
a(I2
g139
tp814
a(I3
g127
tp815
a(I0
g139
tp816
a(I1
g139
tp817
a(I2
g139
tp818
a(I3
g125
tp819
a(I0
g139
tp820
a(I1
g139
tp821
a(I2
g139
tp822
a(I3
g125
tp823
a(I0
g139
tp824
a(I1
g139
tp825
a(I2
g139
tp826
a(I3
g127
tp827
a(I0
g139
tp828
a(I1
g139
tp829
a(I2
g127
tp830
a(I3
g123
tp831
a(I0
g125
tp832
a(I1
g139
tp833
a(I2
g139
tp834
a(I3
g123
tp835
a(I0
g125
tp836
a(I1
g127
tp837
a(I2
g139
tp838
a(I3
g127
tp839
a(I0
g125
tp840
a(I1
g139
tp841
a(I2
g139
tp842
a(I3
g123
tp843
a(I0
g139
tp844
a(I1
g139
tp845
a(I2
g127
tp846
a(I3
g123
tp847
a(I0
g139
tp848
a(I1
g127
tp849
a(I2
g139
tp850
a(I3
g123
tp851
a(I0
g125
tp852
a(I1
g139
tp853
a(I2
g139
tp854
a(I3
g123
tp855
a(I0
g125
tp856
a(I1
g139
tp857
a(I2
g127
tp858
a(I3
g139
tp859
a(I0
g125
tp860
a(I1
g139
tp861
a(I2
g139
tp862
a(I3
g125
tp863
a(I0
g125
tp864
a(I1
g127
tp865
a(I2
g139
tp866
a(I3
g125
tp867
a(I0
g123
tp868
a(I1
g139
tp869
a(I2
g139
tp870
a(I3
g139
tp871
a(I0
g139
tp872
a(I1
g139
tp873
a(I2
g125
tp874
a(I3
g139
tp875
a(I0
g125
tp876
a(I1
g125
tp877
a(I2
g125
tp878
a(I3
g289
tp879
a(I0
g125
tp880
a(I1
g125
tp881
a(I2
g125
tp882
a(I3
g123
tp883
a(I0
g123
tp884
a(I1
g125
tp885
a(I2
g139
tp886
a(I3
g123
tp887
a(I0
g123
tp888
a(I1
g125
tp889
a(I2
g139
tp890
a(I3
g127
tp891
a(I0
g123
tp892
a(I1
g125
tp893
a(I2
g127
tp894
a(I3
g127
tp895
a(I0
g127
tp896
a(I1
g125
tp897
a(I2
g139
tp898
a(I3
g139
tp899
a(I0
g127
tp900
a(I1
g125
tp901
a(I2
g139
tp902
a(I3
g139
tp903
a(I0
g139
tp904
a(I1
g125
tp905
a(I2
g139
tp906
a(I3
g139
tp907
a(I0
g139
tp908
a(I1
g125
tp909
a(I2
g127
tp910
a(I3
g127
tp911
a(I0
g139
tp912
a(I1
g125
tp913
a(I2
g139
tp914
a(I3
g127
tp915
a(I0
g127
tp916
a(I1
g125
tp917
a(I2
g139
tp918
a(I3
g127
tp919
a(I0
g127
tp920
a(I1
g125
tp921
a(I2
g139
tp922
a(I3
g127
tp923
a(I0
g127
tp924
a(I1
g139
tp925
a(I2
g139
tp926
a(I3
g123
tp927
a(I0
g123
tp928
a(I1
g125
tp929
a(I2
g125
tp930
a(I3
g123
tp931
a(I0
g127
tp932
a(I1
g125
tp933
a(I2
g127
tp934
a(I3
g127
tp935
a(I0
g123
tp936
a(I1
g139
tp937
a(I2
g123
tp938
a(I3
g127
tp939
a(I0
g127
tp940
a(I1
g127
tp941
a(I2
g123
tp942
a(I3
g127
tp943
a(I0
g127
tp944
a(I1
g139
tp945
a(I2
g123
tp946
a(I3
g123
tp947
a(I0
g127
tp948
a(I1
g127
tp949
a(I2
g123
tp950
a(I3
g123
tp951
a(I0
g123
tp952
a(I1
g139
tp953
a(I2
g125
tp954
a(I3
g123
tp955
a(I0
g123
tp956
a(I1
g139
tp957
a(I2
g123
tp958
a(I3
g123
tp959
a(I0
g123
tp960
a(I1
g127
tp961
a(I2
g123
tp962
a(I3
g123
tp963
a(I0
g123
tp964
a(I1
g139
tp965
a(I2
g127
tp966
a(I3
g123
tp967
a(I0
g123
tp968
a(I1
g139
tp969
a(I2
g127
tp970
a(I3
g289
tp971
a(I0
g123
tp972
a(I1
g139
tp973
a(I2
g123
tp974
a(I3
g125
tp975
a(I0
g123
tp976
a(I1
g127
tp977
a(I2
g125
tp978
a(I3
g125
tp979
a(I0
g123
tp980
a(I1
g139
tp981
a(I2
g125
tp982
a(I3
g125
tp983
a(I0
g123
tp984
a(I1
g139
tp985
a(I2
g125
tp986
a(I3
g125
tp987
a(I0
g123
tp988
a(I1
g139
tp989
a(I2
g125
tp990
a(I3
g139
tp991
a(I0
g139
tp992
a(I1
g139
tp993
a(I2
g125
tp994
a(I3
g139
tp995
a(I0
g139
tp996
a(I1
g139
tp997
a(I2
g125
tp998
a(I3
g139
tp999
a(I0
g125
tp1000
a(I1
g139
tp1001
a(I2
g125
tp1002
a(I3
g139
tp1003
a(I0
g125
tp1004
a(I1
g127
tp1005
a(I2
g125
tp1006
a(I3
g139
tp1007
a(I0
g125
tp1008
a(I1
g127
tp1009
a(I2
g125
tp1010
a(I3
g139
tp1011
a(I0
g139
tp1012
a(I1
g127
tp1013
a(I2
g125
tp1014
a(I3
g139
tp1015
a(I0
g139
tp1016
a(I1
g127
tp1017
a(I2
g125
tp1018
a(I3
g139
tp1019
a(I0
g127
tp1020
a(I1
g127
tp1021
a(I2
g125
tp1022
a(I3
g127
tp1023
a(I0
g139
tp1024
a(I1
g127
tp1025
a(I2
g139
tp1026
a(I3
g139
tp1027
a(I0
g139
tp1028
a(I1
g123
tp1029
a(I2
g139
tp1030
a(I3
g139
tp1031
a(I0
g139
tp1032
a(I1
g123
tp1033
a(I2
g139
tp1034
a(I3
g127
tp1035
a(I0
g139
tp1036
a(I1
g139
tp1037
a(I2
g127
tp1038
a(I3
g139
tp1039
a(I0
g125
tp1040
a(I1
g127
tp1041
a(I2
g123
tp1042
a(I3
g139
tp1043
a(I0
g125
tp1044
a(I1
g127
tp1045
a(I2
g125
tp1046
a(I3
g139
tp1047
a(I0
g125
tp1048
a(I1
g123
tp1049
a(I2
g123
tp1050
a(I3
g127
tp1051
a(I0
g139
tp1052
a(I1
g127
tp1053
a(I2
g123
tp1054
a(I3
g127
tp1055
a(I0
g139
tp1056
a(I1
g127
tp1057
a(I2
g127
tp1058
a(I3
g139
tp1059
a(I0
g139
tp1060
a(I1
g127
tp1061
a(I2
g125
tp1062
a(I3
g139
tp1063
a(I0
g139
tp1064
a(I1
g123
tp1065
a(I2
g139
tp1066
a(I3
g139
tp1067
a(I0
g125
tp1068
a(I1
g123
tp1069
a(I2
g139
tp1070
a(I3
g139
tp1071
a(I0
g125
tp1072
a(I1
g123
tp1073
a(I2
g123
tp1074
a(I3
g139
tp1075
a(I0
g127
tp1076
a(I1
g123
tp1077
a(I2
g123
tp1078
a(I3
g139
tp1079
a(I0
g127
tp1080
a(I1
g123
tp1081
a(I2
g127
tp1082
a(I3
g139
tp1083
a(I0
g123
tp1084
a(I1
g123
tp1085
a(I2
g127
tp1086
a(I3
g123
tp1087
a(I0
g127
tp1088
a(I1
g123
tp1089
a(I2
g127
tp1090
a(I3
g125
tp1091
a(I0
g127
tp1092
a(I1
g123
tp1093
a(I2
g127
tp1094
a(I3
g125
tp1095
a(I0
g125
tp1096
a(I1
g125
tp1097
a(I2
g127
tp1098
a(I3
g125
tp1099
a(I0
g125
tp1100
a(I1
g125
tp1101
a(I2
g127
tp1102
a(I3
g139
tp1103
a(I0
g123
tp1104
a(I1
g125
tp1105
a(I2
g127
tp1106
a(I3
g139
tp1107
a(I0
g123
tp1108
a(I1
g139
tp1109
a(I2
g127
tp1110
a(I3
g127
tp1111
a(I0
g123
tp1112
a(I1
g139
tp1113
a(I2
g127
tp1114
a(I3
g139
tp1115
a(I0
g127
tp1116
a(I1
g127
tp1117
a(I2
g127
tp1118
a(I3
g139
tp1119
a(I0
g127
tp1120
a(I1
g139
tp1121
a(I2
g139
tp1122
a(I3
g125
tp1123
a(I0
g127
tp1124
a(I1
g289
tp1125
a(I2
g139
tp1126
a(I3
g289
tp1127
a(I0
g123
tp1128
a(I1
g289
tp1129
a(I2
g139
tp1130
a(I3
g289
tp1131
a(I0
g123
tp1132
a(I1
g289
tp1133
a(I2
g127
tp1134
a(I3
g289
tp1135
a(I0
g125
tp1136
a(I1
g289
tp1137
a(I2
g139
tp1138
a(I3
g125
tp1139
a(I0
g127
tp1140
a(I1
g125
tp1141
a(I2
g123
tp1142
a(I3
g125
tp1143
a(I0
g123
tp1144
a(I1
g125
tp1145
a(I2
g125
tp1146
a(I3
g125
tp1147
a(I0
g123
tp1148
a(I1
g125
tp1149
a(I2
g123
tp1150
a(I3
g125
tp1151
a(I0
g125
tp1152
a(I1
g139
tp1153
a(I2
g123
tp1154
a(I3
g139
tp1155
a(I0
g123
tp1156
a(I1
g139
tp1157
a(I2
g123
tp1158
a(I3
g139
tp1159
a(I0
g123
tp1160
a(I1
g139
tp1161
a(I2
g127
tp1162
a(I3
g139
tp1163
a(I0
g123
tp1164
a(I1
g139
tp1165
a(I2
g127
tp1166
a(I3
g139
tp1167
a(I0
g125
tp1168
a(I1
g139
tp1169
a(I2
g123
tp1170
a(I3
g139
tp1171
a(I0
g123
tp1172
a(I1
g139
tp1173
a(I2
g123
tp1174
a(I3
g139
tp1175
a(I0
g123
tp1176
a(I1
g139
tp1177
a(I2
g123
tp1178
a(I3
g139
tp1179
a(I0
g123
tp1180
a(I1
g139
tp1181
a(I2
g123
tp1182
a(I3
g139
tp1183
a(I0
g125
tp1184
a(I1
g127
tp1185
a(I2
g123
tp1186
a(I3
g127
tp1187
a(I0
g125
tp1188
a(I1
g139
tp1189
a(I2
g125
tp1190
a(I3
g139
tp1191
a(I0
g125
tp1192
a(I1
g139
tp1193
a(I2
g125
tp1194
a(I3
g139
tp1195
a(I0
g125
tp1196
a(I1
g127
tp1197
a(I2
g125
tp1198
a(I3
g127
tp1199
a(I0
g123
tp1200
a(I1
g139
tp1201
a(I2
g125
tp1202
a(I3
g139
tp1203
a(I0
g123
tp1204
a(I1
g139
tp1205
a(I2
g125
tp1206
a(I3
g139
tp1207
a(I0
g125
tp1208
a(I1
g139
tp1209
a(I2
g125
tp1210
a(I3
g139
tp1211
a(I0
g125
tp1212
a(I1
g127
tp1213
a(I2
g125
tp1214
a(I3
g127
tp1215
a(I0
g125
tp1216
a(I1
g139
tp1217
a(I2
g127
tp1218
a(I3
g127
tp1219
a(I0
g125
tp1220
a(I1
g139
tp1221
a(I2
g127
tp1222
a(I3
g139
tp1223
a(I0
g123
tp1224
a(I1
g123
tp1225
a(I2
g127
tp1226
a(I3
g139
tp1227
a(I0
g123
tp1228
a(I1
g123
tp1229
a(I2
g125
tp1230
a(I3
g139
tp1231
a(I0
g123
tp1232
a(I1
g125
tp1233
a(I2
g125
tp1234
a(I3
g139
tp1235
a(I0
g125
tp1236
a(I1
g125
tp1237
a(I2
g125
tp1238
a(I3
g139
tp1239
a(I0
g123
tp1240
a(I1
g125
tp1241
a(I2
g125
tp1242
a(I3
g139
tp1243
a(I0
g123
tp1244
a(I1
g125
tp1245
a(I2
g125
tp1246
a(I3
g139
tp1247
a(I0
g123
tp1248
a(I1
g125
tp1249
a(I2
g125
tp1250
a(I3
g139
tp1251
a(I0
g123
tp1252
a(I1
g125
tp1253
a(I2
g125
tp1254
a(I3
g139
tp1255
a(I0
g127
tp1256
a(I1
g125
tp1257
a(I2
g125
tp1258
a(I3
g139
tp1259
a(I0
g127
tp1260
a(I1
g125
tp1261
a(I2
g125
tp1262
a(I3
g139
tp1263
a(I0
g125
tp1264
a(I1
g125
tp1265
a(I2
g139
tp1266
a(I3
g139
tp1267
a(I0
g125
tp1268
a(I1
g125
tp1269
a(I2
g139
tp1270
a(I3
g139
tp1271
a(I0
g127
tp1272
a(I1
g125
tp1273
a(I2
g139
tp1274
a(I3
g139
tp1275
a(I0
g127
tp1276
a(I1
g125
tp1277
a(I2
g139
tp1278
a(I3
g123
tp1279
a(I0
g127
tp1280
a(I1
g125
tp1281
a(I2
g139
tp1282
a(I3
g123
tp1283
a(I0
g123
tp1284
a(I1
g127
tp1285
a(I2
g127
tp1286
a(I3
g123
tp1287
a(I0
g123
tp1288
a(I1
g127
tp1289
a(I2
g127
tp1290
a(I3
g123
tp1291
a(I0
g123
tp1292
a(I1
g123
tp1293
a(I2
g127
tp1294
a(I3
g123
tp1295
a(I0
g125
tp1296
a(I1
g123
tp1297
a(I2
g127
tp1298
a(I3
g123
tp1299
a(I0
g125
tp1300
a(I1
g123
tp1301
a(I2
g127
tp1302
a(I3
g123
tp1303
a(I0
g139
tp1304
a(I1
g125
tp1305
a(I2
g127
tp1306
a(I3
g123
tp1307
a(I0
g125
tp1308
a(I1
g123
tp1309
a(I2
g127
tp1310
a(I3
g123
tp1311
a(I0
g125
tp1312
a(I1
g123
tp1313
a(I2
g127
tp1314
a(I3
g123
tp1315
a(I0
g125
tp1316
a(I1
g123
tp1317
a(I2
g127
tp1318
a(I3
g123
tp1319
a(I0
g139
tp1320
a(I1
g123
tp1321
a(I2
g127
tp1322
a(I3
g123
tp1323
a(I0
g123
tp1324
a(I1
g127
tp1325
a(I2
g123
tp1326
a(I3
g125
tp1327
asS'length'
p1328
I1200
sS'agents'
p1329
(lp1330
(igame
Agent
p1331
(dp1332
S'index'
p1333
I0
sba(igame
Agent
p1334
(dp1335
g1333
I0
sba(igame
Agent
p1336
(dp1337
g1333
I0
sba(igame
Agent
p1338
(dp1339
g1333
I0
sbasS'redTeamName'
p1340
S'Red'
p1341
s.