(dp1
S'layout'
p2
(ilayout
Layout
p3
(dp4
S'capsules'
p5
(lp6
sS'numGhosts'
p7
I4
sS'food'
p8
(igame
Grid
p9
(dp10
S'CELLS_PER_INT'
p11
I30
sS'width'
p12
I34
sS'data'
p13
(lp14
(lp15
I00
aI00
aI00
aI00
aI00
aI00
aI00
aI00
aI00
aI00
aI00
aI00
aI00
aI00
aI00
aI00
aI00
aI00
aa(lp16
I00
aI00
aI00
aI00
aI00
aI01
aI00
aI00
aI00
aI01
aI01
aI00
aI00
aI01
aI00
aI01
aI01
aI00
aa(lp17
I00
aI00
aI00
aI00
aI00
aI00
aI00
aI00
aI00
aI00
aI00
aI00
aI00
aI00
aI00
aI00
aI00
aI00
aa(lp18
I00
aI00
aI00
aI00
aI00
aI00
aI00
aI00
aI00
aI00
aI00
aI00
aI00
aI00
aI00
aI01
aI01
aI00
aa(lp19
I00
aI00
aI00
aI00
aI00
aI00
aI00
aI00
aI00
aI00
aI00
aI00
aI00
aI00
aI00
aI00
aI00
aI00
aa(lp20
I00
aI00
aI00
aI00
aI00
aI00
aI00
aI00
aI00
aI00
aI00
aI00
aI00
aI00
aI00
aI00
aI01
aI00
aa(lp21
I00
aI00
aI00
aI00
aI00
aI01
aI00
aI00
aI00
aI00
aI00
aI00
aI01
aI00
aI01
aI00
aI01
aI00
aa(lp22
I00
aI00
aI00
aI00
aI00
aI00
aI00
aI00
aI00
aI00
aI00
aI00
aI00
aI00
aI00
aI00
aI00
aI00
aa(lp23
I00
aI00
aI00
aI00
aI00
aI00
aI00
aI00
aI00
aI00
aI00
aI00
aI00
aI00
aI00
aI00
aI00
aI00
aa(lp24
I00
aI01
aI00
aI01
aI00
aI00
aI00
aI00
aI00
aI00
aI00
aI00
aI00
aI00
aI00
aI00
aI00
aI00
aa(lp25
I00
aI01
aI00
aI00
aI00
aI00
aI01
aI00
aI00
aI00
aI00
aI00
aI00
aI00
aI00
aI00
aI00
aI00
aa(lp26
I00
aI00
aI00
aI01
aI00
aI01
aI00
aI00
aI00
aI00
aI00
aI01
aI00
aI00
aI01
aI00
aI00
aI00
aa(lp27
I00
aI01
aI00
aI01
aI00
aI00
aI00
aI00
aI00
aI00
aI00
aI00
aI00
aI00
aI00
aI00
aI00
aI00
aa(lp28
I00
aI01
aI00
aI01
aI00
aI00
aI00
aI00
aI00
aI00
aI00
aI00
aI00
aI00
aI01
aI00
aI01
aI00
aa(lp29
I00
aI00
aI00
aI00
aI00
aI00
aI00
aI00
aI00
aI00
aI00
aI00
aI00
aI00
aI01
aI00
aI01
aI00
aa(lp30
I00
aI00
aI00
aI00
aI01
aI00
aI00
aI00
aI00
aI00
aI00
aI00
aI00
aI00
aI00
aI00
aI00
aI00
aa(lp31
I00
aI00
aI00
aI00
aI00
aI00
aI00
aI00
aI00
aI00
aI00
aI00
aI00
aI00
aI00
aI00
aI00
aI00
aa(lp32
I00
aI00
aI00
aI00
aI00
aI00
aI00
aI00
aI00
aI00
aI00
aI00
aI00
aI00
aI00
aI00
aI00
aI00
aa(lp33
I00
aI00
aI00
aI00
aI00
aI00
aI00
aI00
aI00
aI00
aI00
aI00
aI00
aI01
aI00
aI00
aI00
aI00
aa(lp34
I00
aI01
aI00
aI01
aI00
aI00
aI00
aI00
aI00
aI00
aI00
aI00
aI00
aI00
aI00
aI00
aI00
aI00
aa(lp35
I00
aI01
aI00
aI01
aI00
aI00
aI00
aI00
aI00
aI00
aI00
aI00
aI00
aI00
aI01
aI00
aI01
aI00
aa(lp36
I00
aI00
aI00
aI00
aI00
aI00
aI00
aI00
aI00
aI00
aI00
aI00
aI00
aI00
aI01
aI00
aI01
aI00
aa(lp37
I00
aI00
aI00
aI01
aI00
aI00
aI01
aI00
aI00
aI00
aI00
aI00
aI01
aI00
aI01
aI00
aI00
aI00
aa(lp38
I00
aI00
aI00
aI00
aI00
aI00
aI00
aI00
aI00
aI00
aI00
aI01
aI00
aI00
aI00
aI00
aI01
aI00
aa(lp39
I00
aI00
aI00
aI00
aI00
aI00
aI00
aI00
aI00
aI00
aI00
aI00
aI00
aI00
aI01
aI00
aI01
aI00
aa(lp40
I00
aI00
aI00
aI00
aI00
aI00
aI00
aI00
aI00
aI00
aI00
aI00
aI00
aI00
aI00
aI00
aI00
aI00
aa(lp41
I00
aI00
aI00
aI00
aI00
aI00
aI00
aI00
aI00
aI00
aI00
aI00
aI00
aI00
aI00
aI00
aI00
aI00
aa(lp42
I00
aI01
aI00
aI01
aI00
aI01
aI00
aI00
aI00
aI00
aI00
aI00
aI01
aI00
aI00
aI00
aI00
aI00
aa(lp43
I00
aI01
aI00
aI00
aI00
aI00
aI00
aI00
aI00
aI00
aI00
aI00
aI00
aI00
aI00
aI00
aI00
aI00
aa(lp44
I00
aI00
aI00
aI00
aI00
aI00
aI00
aI00
aI00
aI00
aI00
aI00
aI00
aI00
aI00
aI00
aI00
aI00
aa(lp45
I00
aI01
aI01
aI00
aI00
aI00
aI00
aI00
aI00
aI00
aI00
aI00
aI00
aI00
aI00
aI00
aI00
aI00
aa(lp46
I00
aI00
aI00
aI00
aI00
aI00
aI00
aI00
aI00
aI00
aI00
aI00
aI00
aI00
aI00
aI00
aI00
aI00
aa(lp47
I00
aI01
aI01
aI00
aI01
aI00
aI00
aI01
aI01
aI00
aI00
aI00
aI01
aI00
aI00
aI00
aI00
aI00
aa(lp48
I00
aI00
aI00
aI00
aI00
aI00
aI00
aI00
aI00
aI00
aI00
aI00
aI00
aI00
aI00
aI00
aI00
aI00
aasS'height'
p49
I18
sbsS'agentPositions'
p50
(lp51
(I00
(I1
I2
tp52
tp53
a(I00
(I32
I15
tp54
tp55
a(I00
(I1
I1
tp56
tp57
a(I00
(I32
I16
tp58
tp59
asg49
I18
sg12
I34
sS'walls'
p60
(igame
Grid
p61
(dp62
g11
I30
sg12
I34
sg13
(lp63
(lp64
I01
aI01
aI01
aI01
aI01
aI01
aI01
aI01
aI01
aI01
aI01
aI01
aI01
aI01
aI01
aI01
aI01
aI01
aa(lp65
I01
aI00
aI00
aI00
aI01
aI00
aI00
aI00
aI00
aI00
aI00
aI01
aI00
aI00
aI00
aI00
aI00
aI01
aa(lp66
I01
aI00
aI01
aI00
aI00
aI00
aI01
aI00
aI01
aI01
aI01
aI01
aI00
aI01
aI01
aI01
aI01
aI01
aa(lp67
I01
aI00
aI01
aI00
aI01
aI00
aI00
aI00
aI00
aI00
aI00
aI00
aI00
aI00
aI00
aI00
aI00
aI01
aa(lp68
I01
aI00
aI01
aI00
aI01
aI01
aI00
aI01
aI01
aI01
aI01
aI01
aI01
aI01
aI01
aI01
aI01
aI01
aa(lp69
I01
aI00
aI01
aI00
aI00
aI00
aI00
aI00
aI00
aI01
aI00
aI00
aI00
aI00
aI00
aI00
aI00
aI01
aa(lp70
I01
aI00
aI01
aI00
aI01
aI00
aI00
aI00
aI00
aI01
aI00
aI01
aI00
aI01
aI00
aI01
aI00
aI01
aa(lp71
I01
aI00
aI00
aI00
aI01
aI01
aI01
aI00
aI01
aI01
aI00
aI01
aI01
aI01
aI01
aI01
aI01
aI01
aa(lp72
I01
aI00
aI01
aI00
aI01
aI00
aI00
aI00
aI00
aI01
aI00
aI00
aI00
aI00
aI00
aI00
aI00
aI01
aa(lp73
I01
aI00
aI01
aI00
aI01
aI00
aI00
aI01
aI00
aI01
aI00
aI00
aI00
aI00
aI00
aI01
aI00
aI01
aa(lp74
I01
aI00
aI01
aI00
aI01
aI00
aI00
aI01
aI00
aI01
aI01
aI00
aI01
aI01
aI01
aI01
aI00
aI01
aa(lp75
I01
aI01
aI01
aI00
aI01
aI00
aI00
aI00
aI00
aI00
aI00
aI00
aI00
aI01
aI00
aI01
aI00
aI01
aa(lp76
I01
aI00
aI01
aI00
aI00
aI00
aI00
aI01
aI00
aI01
aI00
aI01
aI00
aI00
aI00
aI01
aI00
aI01
aa(lp77
I01
aI00
aI00
aI00
aI01
aI00
aI00
aI01
aI00
aI01
aI00
aI01
aI00
aI01
aI00
aI01
aI00
aI01
aa(lp78
I01
aI00
aI00
aI00
aI00
aI00
aI00
aI00
aI00
aI00
aI00
aI00
aI00
aI01
aI00
aI01
aI00
aI01
aa(lp79
I01
aI01
aI00
aI00
aI00
aI00
aI01
aI00
aI01
aI00
aI01
aI01
aI01
aI01
aI01
aI01
aI01
aI01
aa(lp80
I01
aI00
aI00
aI00
aI00
aI00
aI00
aI00
aI00
aI00
aI00
aI00
aI00
aI00
aI00
aI00
aI00
aI01
aa(lp81
I01
aI00
aI00
aI00
aI00
aI00
aI00
aI00
aI00
aI00
aI00
aI00
aI00
aI00
aI00
aI00
aI00
aI01
aa(lp82
I01
aI01
aI01
aI01
aI01
aI01
aI01
aI01
aI00
aI01
aI00
aI01
aI00
aI00
aI00
aI00
aI01
aI01
aa(lp83
I01
aI00
aI01
aI00
aI01
aI00
aI00
aI00
aI00
aI00
aI00
aI00
aI00
aI00
aI00
aI00
aI00
aI01
aa(lp84
I01
aI00
aI01
aI00
aI01
aI00
aI01
aI00
aI01
aI00
aI01
aI00
aI00
aI01
aI00
aI00
aI00
aI01
aa(lp85
I01
aI00
aI01
aI00
aI00
aI00
aI01
aI00
aI01
aI00
aI01
aI00
aI00
aI00
aI00
aI01
aI00
aI01
aa(lp86
I01
aI00
aI01
aI00
aI01
aI00
aI00
aI00
aI00
aI00
aI00
aI00
aI00
aI01
aI00
aI01
aI01
aI01
aa(lp87
I01
aI00
aI01
aI01
aI01
aI01
aI00
aI01
aI01
aI00
aI01
aI00
aI00
aI01
aI00
aI01
aI00
aI01
aa(lp88
I01
aI00
aI01
aI00
aI00
aI00
aI00
aI00
aI01
aI00
aI01
aI00
aI00
aI01
aI00
aI01
aI00
aI01
aa(lp89
I01
aI00
aI00
aI00
aI00
aI00
aI00
aI00
aI01
aI00
aI00
aI00
aI00
aI01
aI00
aI01
aI00
aI01
aa(lp90
I01
aI01
aI01
aI01
aI01
aI01
aI01
aI00
aI01
aI01
aI00
aI01
aI01
aI01
aI00
aI00
aI00
aI01
aa(lp91
I01
aI00
aI01
aI00
aI01
aI00
aI01
aI00
aI01
aI00
aI00
aI00
aI00
aI01
aI00
aI01
aI00
aI01
aa(lp92
I01
aI00
aI00
aI00
aI00
aI00
aI00
aI00
aI01
aI00
aI00
aI00
aI00
aI00
aI00
aI01
aI00
aI01
aa(lp93
I01
aI01
aI01
aI01
aI01
aI01
aI01
aI01
aI01
aI01
aI01
aI00
aI01
aI01
aI00
aI01
aI00
aI01
aa(lp94
I01
aI00
aI00
aI00
aI00
aI00
aI00
aI00
aI00
aI00
aI00
aI00
aI00
aI01
aI00
aI01
aI00
aI01
aa(lp95
I01
aI01
aI01
aI01
aI01
aI00
aI01
aI01
aI01
aI01
aI00
aI01
aI00
aI00
aI00
aI01
aI00
aI01
aa(lp96
I01
aI00
aI00
aI00
aI00
aI00
aI01
aI00
aI00
aI00
aI00
aI00
aI00
aI01
aI00
aI00
aI00
aI01
aa(lp97
I01
aI01
aI01
aI01
aI01
aI01
aI01
aI01
aI01
aI01
aI01
aI01
aI01
aI01
aI01
aI01
aI01
aI01
aasg49
I18
sbsS'totalFood'
p98
I60
sS'layoutText'
p99
(lp100
S'%%%%%%%%%%%%%%%%%%%%%%%%%%%%%%%%%%'
p101
aS'%.%.%..%     ..%  % ..%..       4%'
p102
aS'%.%.% %% %%%%%%%     %%%%% %%%%%2%'
p103
aS'% % % .%  %. ..%    ... .        %'
p104
aS'%.% % %%  %% %%%  . % %%%%%% %% %%'
p105
aS'%   % .%  %    %      .   %. %  .%'
p106
aS'%%% % %%   .%% %  %    .  %    % %'
p107
aS'%.% %     %    %    %% %%    %   %'
p108
aS'%.% %%%%%%% %%    %       %  % % %'
p109
aS'% % %  %       %    %% %%%%%%% %.%'
p110
aS'%   %    %% %%    %    %     % %.%'
p111
aS'% %    %  .    %  % %%.   %% % %%%'
p112
aS'%.  % .%   .      %    %  %. %   %'
p113
aS'%% %% %%%%%% % .  %%% %%  %% % %.%'
p114
aS'%        . ...    %.. .%  %. % % %'
p115
aS'%1%%%%% %%%%%     %%%%%%% %% %.%.%'
p116
aS'%3       ..%.. %  %..     %..%.%.%'
p117
aS'%%%%%%%%%%%%%%%%%%%%%%%%%%%%%%%%%%'
p118
asbsS'blueTeamName'
p119
S'Blue'
p120
sS'actions'
p121
(lp122
(I0
S'North'
p123
tp124
a(I1
S'South'
p125
tp126
a(I2
S'East'
p127
tp128
a(I3
g125
tp129
a(I0
g127
tp130
a(I1
S'West'
p131
tp132
a(I2
g127
tp133
a(I3
g125
tp134
a(I0
g127
tp135
a(I1
g125
tp136
a(I2
g127
tp137
a(I3
g131
tp138
a(I0
g127
tp139
a(I1
g125
tp140
a(I2
g127
tp141
a(I3
g125
tp142
a(I0
g127
tp143
a(I1
g131
tp144
a(I2
g127
tp145
a(I3
g125
tp146
a(I0
g127
tp147
a(I1
g125
tp148
a(I2
g127
tp149
a(I3
g131
tp150
a(I0
g127
tp151
a(I1
g131
tp152
a(I2
g123
tp153
a(I3
g125
tp154
a(I0
g127
tp155
a(I1
g131
tp156
a(I2
g123
tp157
a(I3
g131
tp158
a(I0
g127
tp159
a(I1
g125
tp160
a(I2
g127
tp161
a(I3
g131
tp162
a(I0
g127
tp163
a(I1
g131
tp164
a(I2
g127
tp165
a(I3
g125
tp166
a(I0
g127
tp167
a(I1
g131
tp168
a(I2
g127
tp169
a(I3
g131
tp170
a(I0
g127
tp171
a(I1
g131
tp172
a(I2
g127
tp173
a(I3
g131
tp174
a(I0
g127
tp175
a(I1
g125
tp176
a(I2
g127
tp177
a(I3
g131
tp178
a(I0
g127
tp179
a(I1
g131
tp180
a(I2
g127
tp181
a(I3
g125
tp182
a(I0
g127
tp183
a(I1
g131
tp184
a(I2
g127
tp185
a(I3
g131
tp186
a(I0
g127
tp187
a(I1
g131
tp188
a(I2
g127
tp189
a(I3
g131
tp190
a(I0
g127
tp191
a(I1
g131
tp192
a(I2
g127
tp193
a(I3
g131
tp194
a(I0
g123
tp195
a(I1
g131
tp196
a(I2
g127
tp197
a(I3
g131
tp198
a(I0
g123
tp199
a(I1
g131
tp200
a(I2
g123
tp201
a(I3
g131
tp202
a(I0
g123
tp203
a(I1
g123
tp204
a(I2
g123
tp205
a(I3
g131
tp206
a(I0
g123
tp207
a(I1
g131
tp208
a(I2
g131
tp209
a(I3
g125
tp210
a(I0
g131
tp211
a(I1
g131
tp212
a(I2
g123
tp213
a(I3
g131
tp214
a(I0
g123
tp215
a(I1
g125
tp216
a(I2
g123
tp217
a(I3
g131
tp218
a(I0
g123
tp219
a(I1
g125
tp220
a(I2
g123
tp221
a(I3
g125
tp222
a(I0
g123
tp223
a(I1
g125
tp224
a(I2
g123
tp225
a(I3
g125
tp226
a(I0
g127
tp227
a(I1
g125
tp228
a(I2
g127
tp229
a(I3
g125
tp230
a(I0
g123
tp231
a(I1
g123
tp232
a(I2
g123
tp233
a(I3
g125
tp234
a(I0
g123
tp235
a(I1
g123
tp236
a(I2
g127
tp237
a(I3
g131
tp238
a(I0
g127
tp239
a(I1
g123
tp240
a(I2
g127
tp241
a(I3
g131
tp242
a(I0
g123
tp243
a(I1
g123
tp244
a(I2
g123
tp245
a(I3
g127
tp246
a(I0
g127
tp247
a(I1
g127
tp248
a(I2
g123
tp249
a(I3
g127
tp250
a(I0
g123
tp251
a(I1
g127
tp252
a(I2
g127
tp253
a(I3
g123
tp254
a(I0
g127
tp255
a(I1
g123
tp256
a(I2
g127
tp257
a(I3
g123
tp258
a(I0
g127
tp259
a(I1
g123
tp260
a(I2
g127
tp261
a(I3
g123
tp262
a(I0
g127
tp263
a(I1
g127
tp264
a(I2
g127
tp265
a(I3
g123
tp266
a(I0
g131
tp267
a(I1
g127
tp268
a(I2
g125
tp269
a(I3
g123
tp270
a(I0
g131
tp271
a(I1
g123
tp272
a(I2
g131
tp273
a(I3
g123
tp274
a(I0
g131
tp275
a(I1
g123
tp276
a(I2
g125
tp277
a(I3
g123
tp278
a(I0
g131
tp279
a(I1
g131
tp280
a(I2
g125
tp281
a(I3
g123
tp282
a(I0
g131
tp283
a(I1
g131
tp284
a(I2
g125
tp285
a(I3
g123
tp286
a(I0
g131
tp287
a(I1
g125
tp288
a(I2
g125
tp289
a(I3
g125
tp290
a(I0
g127
tp291
a(I1
g123
tp292
a(I2
g125
tp293
a(I3
g125
tp294
a(I0
g125
tp295
a(I1
g125
tp296
a(I2
g125
tp297
a(I3
g125
tp298
a(I0
g123
tp299
a(I1
g123
tp300
a(I2
g131
tp301
a(I3
g125
tp302
a(I0
g125
tp303
a(I1
g125
tp304
a(I2
g125
tp305
a(I3
g131
tp306
a(I0
g123
tp307
a(I1
g123
tp308
a(I2
g125
tp309
a(I3
g131
tp310
a(I0
g125
tp311
a(I1
g125
tp312
a(I2
g127
tp313
a(I3
g131
tp314
a(I0
g123
tp315
a(I1
g123
tp316
a(I2
g131
tp317
a(I3
g123
tp318
a(I0
g125
tp319
a(I1
g125
tp320
a(I2
g131
tp321
a(I3
g131
tp322
a(I0
g123
tp323
a(I1
g123
tp324
a(I2
g131
tp325
a(I3
g131
tp326
a(I0
g125
tp327
a(I1
g125
tp328
a(I2
g127
tp329
a(I3
g131
tp330
a(I0
g123
tp331
a(I1
g123
tp332
a(I2
g127
tp333
a(I3
g123
tp334
a(I0
g125
tp335
a(I1
g125
tp336
a(I2
g123
tp337
a(I3
g123
tp338
a(I0
g123
tp339
a(I1
g123
tp340
a(I2
g123
tp341
a(I3
g127
tp342
a(I0
g125
tp343
a(I1
g125
tp344
a(I2
g131
tp345
a(I3
g123
tp346
a(I0
g123
tp347
a(I1
g123
tp348
a(I2
g131
tp349
a(I3
g123
tp350
a(I0
g125
tp351
a(I1
g125
tp352
a(I2
g123
tp353
a(I3
g127
tp354
a(I0
g123
tp355
a(I1
g123
tp356
a(I2
g123
tp357
a(I3
g127
tp358
a(I0
g125
tp359
a(I1
g125
tp360
a(I2
g123
tp361
a(I3
g131
tp362
a(I0
g123
tp363
a(I1
g123
tp364
a(I2
g131
tp365
a(I3
g131
tp366
a(I0
g125
tp367
a(I1
g125
tp368
a(I2
g131
tp369
a(I3
g131
tp370
a(I0
g123
tp371
a(I1
g123
tp372
a(I2
g131
tp373
a(I3
g127
tp374
a(I0
g125
tp375
a(I1
g125
tp376
a(I2
g123
tp377
a(I3
g125
tp378
a(I0
g125
tp379
a(I1
g125
tp380
a(I2
g131
tp381
a(I3
g125
tp382
a(I0
g125
tp383
a(I1
g131
tp384
a(I2
g131
tp385
a(I3
g131
tp386
a(I0
g131
tp387
a(I1
g131
tp388
a(I2
g123
tp389
a(I3
g125
tp390
a(I0
g125
tp391
a(I1
g125
tp392
a(I2
g131
tp393
a(I3
g131
tp394
a(I0
g125
tp395
a(I1
g125
tp396
a(I2
g131
tp397
a(I3
g131
tp398
a(I0
g131
tp399
a(I1
g125
tp400
a(I2
g131
tp401
a(I3
g125
tp402
a(I0
g131
tp403
a(I1
g125
tp404
a(I2
g123
tp405
a(I3
g131
tp406
a(I0
g123
tp407
a(I1
g125
tp408
a(I2
g131
tp409
a(I3
g131
tp410
a(I0
g131
tp411
a(I1
g125
tp412
a(I2
g131
tp413
a(I3
g131
tp414
a(I0
g131
tp415
a(I1
g125
tp416
a(I2
g131
tp417
a(I3
g131
tp418
a(I0
g131
tp419
a(I1
g125
tp420
a(I2
g125
tp421
a(I3
g123
tp422
a(I0
g123
tp423
a(I1
g125
tp424
a(I2
g131
tp425
a(I3
g123
tp426
a(I0
g131
tp427
a(I1
g131
tp428
a(I2
g131
tp429
a(I3
g127
tp430
a(I0
g131
tp431
a(I1
g131
tp432
a(I2
g131
tp433
a(I3
g131
tp434
a(I0
g131
tp435
a(I1
g131
tp436
a(I2
g123
tp437
a(I3
g123
tp438
a(I0
g125
tp439
a(I1
g131
tp440
a(I2
g123
tp441
a(I3
g123
tp442
a(I0
g131
tp443
a(I1
g131
tp444
a(I2
g123
tp445
a(I3
g127
tp446
a(I0
g131
tp447
a(I1
g131
tp448
a(I2
g123
tp449
a(I3
S'Stop'
p450
tp451
a(I0
g131
tp452
a(I1
g131
tp453
a(I2
g127
tp454
a(I3
g125
tp455
a(I0
g127
tp456
a(I1
g131
tp457
a(I2
g131
tp458
a(I3
g125
tp459
a(I0
g127
tp460
a(I1
g127
tp461
a(I2
g125
tp462
a(I3
g131
tp463
a(I0
g127
tp464
a(I1
g127
tp465
a(I2
g125
tp466
a(I3
g125
tp467
a(I0
g127
tp468
a(I1
g127
tp469
a(I2
g125
tp470
a(I3
g125
tp471
a(I0
g123
tp472
a(I1
g123
tp473
a(I2
g125
tp474
a(I3
g131
tp475
a(I0
g127
tp476
a(I1
g123
tp477
a(I2
g127
tp478
a(I3
g125
tp479
a(I0
g127
tp480
a(I1
g131
tp481
a(I2
g127
tp482
a(I3
g131
tp483
a(I0
g125
tp484
a(I1
g123
tp485
a(I2
g127
tp486
a(I3
g131
tp487
a(I0
g125
tp488
a(I1
g131
tp489
a(I2
g127
tp490
a(I3
g125
tp491
a(I0
g125
tp492
a(I1
g131
tp493
a(I2
g123
tp494
a(I3
g131
tp495
a(I0
g125
tp496
a(I1
g131
tp497
a(I2
g127
tp498
a(I3
g131
tp499
a(I0
g125
tp500
a(I1
g123
tp501
a(I2
g127
tp502
a(I3
g131
tp503
a(I0
g131
tp504
a(I1
g131
tp505
a(I2
g125
tp506
a(I3
g125
tp507
a(I0
g131
tp508
a(I1
g131
tp509
a(I2
g125
tp510
a(I3
g131
tp511
a(I0
g131
tp512
a(I1
g125
tp513
a(I2
g125
tp514
a(I3
g131
tp515
a(I0
g123
tp516
a(I1
g125
tp517
a(I2
g125
tp518
a(I3
g131
tp519
a(I0
g131
tp520
a(I1
g123
tp521
a(I2
g125
tp522
a(I3
g131
tp523
a(I0
g131
tp524
a(I1
g131
tp525
a(I2
g127
tp526
a(I3
g131
tp527
a(I0
g131
tp528
a(I1
g131
tp529
a(I2
g131
tp530
a(I3
g131
tp531
a(I0
g125
tp532
a(I1
g131
tp533
a(I2
g127
tp534
a(I3
g125
tp535
a(I0
g131
tp536
a(I1
g125
tp537
a(I2
g125
tp538
a(I3
g131
tp539
a(I0
g131
tp540
a(I1
g131
tp541
a(I2
g125
tp542
a(I3
g131
tp543
a(I0
g125
tp544
a(I1
g131
tp545
a(I2
g125
tp546
a(I3
g125
tp547
a(I0
g131
tp548
a(I1
g123
tp549
a(I2
g131
tp550
a(I3
g125
tp551
a(I0
g131
tp552
a(I1
g123
tp553
a(I2
g131
tp554
a(I3
g125
tp555
a(I0
g123
tp556
a(I1
g127
tp557
a(I2
g131
tp558
a(I3
g125
tp559
a(I0
g123
tp560
a(I1
g127
tp561
a(I2
g131
tp562
a(I3
g125
tp563
a(I0
g127
tp564
a(I1
g125
tp565
a(I2
g131
tp566
a(I3
g125
tp567
a(I0
g127
tp568
a(I1
g127
tp569
a(I2
g131
tp570
a(I3
g131
tp571
a(I0
g125
tp572
a(I1
g127
tp573
a(I2
g131
tp574
a(I3
g131
tp575
a(I0
g127
tp576
a(I1
g123
tp577
a(I2
g123
tp578
a(I3
g131
tp579
a(I0
g127
tp580
a(I1
g127
tp581
a(I2
g123
tp582
a(I3
g125
tp583
a(I0
g127
tp584
a(I1
g127
tp585
a(I2
g123
tp586
a(I3
g131
tp587
a(I0
g123
tp588
a(I1
g127
tp589
a(I2
g125
tp590
a(I3
g131
tp591
a(I0
g127
tp592
a(I1
g123
tp593
a(I2
g125
tp594
a(I3
g127
tp595
a(I0
g127
tp596
a(I1
g127
tp597
a(I2
g125
tp598
a(I3
g123
tp599
a(I0
g123
tp600
a(I1
g127
tp601
a(I2
g127
tp602
a(I3
g123
tp603
a(I0
g127
tp604
a(I1
g127
tp605
a(I2
g127
tp606
a(I3
g131
tp607
a(I0
g127
tp608
a(I1
g127
tp609
a(I2
g127
tp610
a(I3
g123
tp611
a(I0
g127
tp612
a(I1
g127
tp613
a(I2
g127
tp614
a(I3
g123
tp615
a(I0
g127
tp616
a(I1
g127
tp617
a(I2
g127
tp618
a(I3
g131
tp619
a(I0
g127
tp620
a(I1
g123
tp621
a(I2
g127
tp622
a(I3
g131
tp623
a(I0
g127
tp624
a(I1
g127
tp625
a(I2
g127
tp626
a(I3
g123
tp627
a(I0
g123
tp628
a(I1
g127
tp629
a(I2
g127
tp630
a(I3
g127
tp631
a(I0
g127
tp632
a(I1
g127
tp633
a(I2
g131
tp634
a(I3
g127
tp635
a(I0
g450
tp636
a(I1
g450
tp637
a(I2
g123
tp638
a(I3
g127
tp639
a(I0
g131
tp640
a(I1
g450
tp641
a(I2
g123
tp642
a(I3
g127
tp643
a(I0
g125
tp644
a(I1
g125
tp645
a(I2
g127
tp646
a(I3
g450
tp647
a(I0
g125
tp648
a(I1
g125
tp649
a(I2
g127
tp650
a(I3
g131
tp651
a(I0
g125
tp652
a(I1
g125
tp653
a(I2
g131
tp654
a(I3
g131
tp655
a(I0
g131
tp656
a(I1
g125
tp657
a(I2
g131
tp658
a(I3
g131
tp659
a(I0
g131
tp660
a(I1
g450
tp661
a(I2
g131
tp662
a(I3
g123
tp663
a(I0
g131
tp664
a(I1
g450
tp665
a(I2
g123
tp666
a(I3
g123
tp667
a(I0
g123
tp668
a(I1
g450
tp669
a(I2
g123
tp670
a(I3
g127
tp671
a(I0
g123
tp672
a(I1
g450
tp673
a(I2
g123
tp674
a(I3
g127
tp675
a(I0
g127
tp676
a(I1
g123
tp677
a(I2
g127
tp678
a(I3
g127
tp679
a(I0
g127
tp680
a(I1
g123
tp681
a(I2
g127
tp682
a(I3
g123
tp683
a(I0
g127
tp684
a(I1
g450
tp685
a(I2
g127
tp686
a(I3
g127
tp687
a(I0
g123
tp688
a(I1
g450
tp689
a(I2
g123
tp690
a(I3
g127
tp691
a(I0
g127
tp692
a(I1
g123
tp693
a(I2
g127
tp694
a(I3
g127
tp695
a(I0
g127
tp696
a(I1
g123
tp697
a(I2
g127
tp698
a(I3
g125
tp699
a(I0
g123
tp700
a(I1
g450
tp701
a(I2
g123
tp702
a(I3
g125
tp703
a(I0
g123
tp704
a(I1
g123
tp705
a(I2
g123
tp706
a(I3
g125
tp707
a(I0
g123
tp708
a(I1
g123
tp709
a(I2
g123
tp710
a(I3
g123
tp711
a(I0
g123
tp712
a(I1
g123
tp713
a(I2
g125
tp714
a(I3
g125
tp715
a(I0
g123
tp716
a(I1
g125
tp717
a(I2
g123
tp718
a(I3
g123
tp719
a(I0
g127
tp720
a(I1
g123
tp721
a(I2
g123
tp722
a(I3
g123
tp723
a(I0
g127
tp724
a(I1
g123
tp725
a(I2
g450
tp726
a(I3
g123
tp727
a(I0
g127
tp728
a(I1
g123
tp729
a(I2
g450
tp730
a(I3
g123
tp731
a(I0
g127
tp732
a(I1
g127
tp733
a(I2
g125
tp734
a(I3
g123
tp735
a(I0
g123
tp736
a(I1
g123
tp737
a(I2
g125
tp738
a(I3
g123
tp739
a(I0
g123
tp740
a(I1
g127
tp741
a(I2
g123
tp742
a(I3
g123
tp743
a(I0
g450
tp744
a(I1
g123
tp745
a(I2
g450
tp746
a(I3
g123
tp747
a(I0
g125
tp748
a(I1
g125
tp749
a(I2
g127
tp750
a(I3
g125
tp751
a(I0
g123
tp752
a(I1
g123
tp753
a(I2
g127
tp754
a(I3
g125
tp755
a(I0
g125
tp756
a(I1
g125
tp757
a(I2
g127
tp758
a(I3
g127
tp759
a(I0
g123
tp760
a(I1
g123
tp761
a(I2
g127
tp762
a(I3
g127
tp763
a(I0
g125
tp764
a(I1
g125
tp765
a(I2
g127
tp766
a(I3
g127
tp767
a(I0
g123
tp768
a(I1
g123
tp769
a(I2
g123
tp770
a(I3
g127
tp771
a(I0
g125
tp772
a(I1
g125
tp773
a(I2
g123
tp774
a(I3
g123
tp775
a(I0
g123
tp776
a(I1
g123
tp777
a(I2
g127
tp778
a(I3
g123
tp779
a(I0
g125
tp780
a(I1
g125
tp781
a(I2
g127
tp782
a(I3
g127
tp783
a(I0
g123
tp784
a(I1
g123
tp785
a(I2
g127
tp786
a(I3
g127
tp787
a(I0
g125
tp788
a(I1
g125
tp789
a(I2
g127
tp790
a(I3
g127
tp791
a(I0
g123
tp792
a(I1
g123
tp793
a(I2
g127
tp794
a(I3
g127
tp795
a(I0
g125
tp796
a(I1
g125
tp797
a(I2
g123
tp798
a(I3
g127
tp799
a(I0
g123
tp800
a(I1
g123
tp801
a(I2
g123
tp802
a(I3
g123
tp803
a(I0
g125
tp804
a(I1
g125
tp805
a(I2
g127
tp806
a(I3
g123
tp807
a(I0
g123
tp808
a(I1
g123
tp809
a(I2
g127
tp810
a(I3
g127
tp811
a(I0
g125
tp812
a(I1
g125
tp813
a(I2
g127
tp814
a(I3
g127
tp815
a(I0
g123
tp816
a(I1
g123
tp817
a(I2
g127
tp818
a(I3
g127
tp819
a(I0
g125
tp820
a(I1
g125
tp821
a(I2
g127
tp822
a(I3
g127
tp823
a(I0
g123
tp824
a(I1
g123
tp825
a(I2
g127
tp826
a(I3
g127
tp827
a(I0
g125
tp828
a(I1
g125
tp829
a(I2
g125
tp830
a(I3
g127
tp831
a(I0
g123
tp832
a(I1
g123
tp833
a(I2
g125
tp834
a(I3
g125
tp835
a(I0
g125
tp836
a(I1
g125
tp837
a(I2
g131
tp838
a(I3
g125
tp839
a(I0
g123
tp840
a(I1
g123
tp841
a(I2
g125
tp842
a(I3
g131
tp843
a(I0
g125
tp844
a(I1
g125
tp845
a(I2
g125
tp846
a(I3
g125
tp847
a(I0
g123
tp848
a(I1
g123
tp849
a(I2
g127
tp850
a(I3
g125
tp851
a(I0
g125
tp852
a(I1
g125
tp853
a(I2
g125
tp854
a(I3
g127
tp855
a(I0
g123
tp856
a(I1
g123
tp857
a(I2
g125
tp858
a(I3
g125
tp859
a(I0
g125
tp860
a(I1
g125
tp861
a(I2
g131
tp862
a(I3
g125
tp863
a(I0
g123
tp864
a(I1
g123
tp865
a(I2
g131
tp866
a(I3
g131
tp867
a(I0
g125
tp868
a(I1
g125
tp869
a(I2
g123
tp870
a(I3
g131
tp871
a(I0
g123
tp872
a(I1
g123
tp873
a(I2
g131
tp874
a(I3
g123
tp875
a(I0
g125
tp876
a(I1
g125
tp877
a(I2
g131
tp878
a(I3
g131
tp879
a(I0
g123
tp880
a(I1
g123
tp881
a(I2
g131
tp882
a(I3
g131
tp883
a(I0
g125
tp884
a(I1
g125
tp885
a(I2
g123
tp886
a(I3
g123
tp887
a(I0
g123
tp888
a(I1
g123
tp889
a(I2
g125
tp890
a(I3
g125
tp891
a(I0
g125
tp892
a(I1
g125
tp893
a(I2
g125
tp894
a(I3
g125
tp895
a(I0
g123
tp896
a(I1
g123
tp897
a(I2
g131
tp898
a(I3
g131
tp899
a(I0
g125
tp900
a(I1
g125
tp901
a(I2
g131
tp902
a(I3
g131
tp903
a(I0
g123
tp904
a(I1
g123
tp905
a(I2
g123
tp906
a(I3
g131
tp907
a(I0
g125
tp908
a(I1
g125
tp909
a(I2
g131
tp910
a(I3
g123
tp911
a(I0
g123
tp912
a(I1
g123
tp913
a(I2
g131
tp914
a(I3
g131
tp915
a(I0
g125
tp916
a(I1
g125
tp917
a(I2
g131
tp918
a(I3
g131
tp919
a(I0
g123
tp920
a(I1
g123
tp921
a(I2
g131
tp922
a(I3
g131
tp923
a(I0
g125
tp924
a(I1
g125
tp925
a(I2
g131
tp926
a(I3
g131
tp927
a(I0
g123
tp928
a(I1
g123
tp929
a(I2
g131
tp930
a(I3
g131
tp931
a(I0
g125
tp932
a(I1
g125
tp933
a(I2
g123
tp934
a(I3
g123
tp935
a(I0
g123
tp936
a(I1
g123
tp937
a(I2
g131
tp938
a(I3
g131
tp939
a(I0
g125
tp940
a(I1
g125
tp941
a(I2
g131
tp942
a(I3
g131
tp943
a(I0
g123
tp944
a(I1
g123
tp945
a(I2
g131
tp946
a(I3
g131
tp947
a(I0
g125
tp948
a(I1
g125
tp949
a(I2
g123
tp950
a(I3
g125
tp951
a(I0
g123
tp952
a(I1
g123
tp953
a(I2
g127
tp954
a(I3
g125
tp955
a(I0
g125
tp956
a(I1
g125
tp957
a(I2
g127
tp958
a(I3
g125
tp959
a(I0
g123
tp960
a(I1
g123
tp961
a(I2
g127
tp962
a(I3
g131
tp963
a(I0
g125
tp964
a(I1
g125
tp965
a(I2
g125
tp966
a(I3
g131
tp967
a(I0
g123
tp968
a(I1
g123
tp969
a(I2
g127
tp970
a(I3
g131
tp971
a(I0
g125
tp972
a(I1
g125
tp973
a(I2
g127
tp974
a(I3
g123
tp975
a(I0
g123
tp976
a(I1
g123
tp977
a(I2
g123
tp978
a(I3
g131
tp979
a(I0
g125
tp980
a(I1
g125
tp981
a(I2
g123
tp982
a(I3
g131
tp983
a(I0
g123
tp984
a(I1
g123
tp985
a(I2
g127
tp986
a(I3
g131
tp987
a(I0
g125
tp988
a(I1
g125
tp989
a(I2
g127
tp990
a(I3
g123
tp991
a(I0
g123
tp992
a(I1
g123
tp993
a(I2
g127
tp994
a(I3
g131
tp995
a(I0
g125
tp996
a(I1
g125
tp997
a(I2
g127
tp998
a(I3
g131
tp999
a(I0
g123
tp1000
a(I1
g123
tp1001
a(I2
g127
tp1002
a(I3
g123
tp1003
a(I0
g125
tp1004
a(I1
g125
tp1005
a(I2
g123
tp1006
a(I3
g131
tp1007
a(I0
g123
tp1008
a(I1
g123
tp1009
a(I2
g123
tp1010
a(I3
g125
tp1011
a(I0
g125
tp1012
a(I1
g125
tp1013
a(I2
g131
tp1014
a(I3
g125
tp1015
a(I0
g123
tp1016
a(I1
g123
tp1017
a(I2
g131
tp1018
a(I3
g131
tp1019
a(I0
g125
tp1020
a(I1
g125
tp1021
a(I2
g131
tp1022
a(I3
g131
tp1023
a(I0
g123
tp1024
a(I1
g123
tp1025
a(I2
g127
tp1026
a(I3
g131
tp1027
a(I0
g125
tp1028
a(I1
g125
tp1029
a(I2
g127
tp1030
a(I3
g123
tp1031
a(I0
g123
tp1032
a(I1
g123
tp1033
a(I2
g127
tp1034
a(I3
g123
tp1035
a(I0
g125
tp1036
a(I1
g125
tp1037
a(I2
g125
tp1038
a(I3
g123
tp1039
a(I0
g123
tp1040
a(I1
g123
tp1041
a(I2
g125
tp1042
a(I3
g125
tp1043
a(I0
g125
tp1044
a(I1
g125
tp1045
a(I2
g127
tp1046
a(I3
g125
tp1047
a(I0
g123
tp1048
a(I1
g123
tp1049
a(I2
g127
tp1050
a(I3
g125
tp1051
a(I0
g125
tp1052
a(I1
g125
tp1053
a(I2
g127
tp1054
a(I3
g127
tp1055
a(I0
g123
tp1056
a(I1
g123
tp1057
a(I2
g127
tp1058
a(I3
g127
tp1059
a(I0
g125
tp1060
a(I1
g125
tp1061
a(I2
g127
tp1062
a(I3
g127
tp1063
a(I0
g123
tp1064
a(I1
g123
tp1065
a(I2
g125
tp1066
a(I3
g123
tp1067
a(I0
g125
tp1068
a(I1
g125
tp1069
a(I2
g125
tp1070
a(I3
g127
tp1071
a(I0
g123
tp1072
a(I1
g123
tp1073
a(I2
g127
tp1074
a(I3
g127
tp1075
a(I0
g125
tp1076
a(I1
g125
tp1077
a(I2
g125
tp1078
a(I3
g127
tp1079
a(I0
g123
tp1080
a(I1
g123
tp1081
a(I2
g125
tp1082
a(I3
g125
tp1083
a(I0
g125
tp1084
a(I1
g125
tp1085
a(I2
g125
tp1086
a(I3
g127
tp1087
a(I0
g123
tp1088
a(I1
g123
tp1089
a(I2
g125
tp1090
a(I3
g127
tp1091
a(I0
g125
tp1092
a(I1
g125
tp1093
a(I2
g125
tp1094
a(I3
g127
tp1095
a(I0
g123
tp1096
a(I1
g123
tp1097
a(I2
g123
tp1098
a(I3
g125
tp1099
a(I0
g125
tp1100
a(I1
g125
tp1101
a(I2
g123
tp1102
a(I3
g127
tp1103
a(I0
g123
tp1104
a(I1
g123
tp1105
a(I2
g123
tp1106
a(I3
g127
tp1107
a(I0
g125
tp1108
a(I1
g125
tp1109
a(I2
g131
tp1110
a(I3
g127
tp1111
a(I0
g123
tp1112
a(I1
g123
tp1113
a(I2
g131
tp1114
a(I3
g123
tp1115
a(I0
g125
tp1116
a(I1
g125
tp1117
a(I2
g123
tp1118
a(I3
g123
tp1119
a(I0
g123
tp1120
a(I1
g123
tp1121
a(I2
g131
tp1122
a(I3
g123
tp1123
a(I0
g125
tp1124
a(I1
g125
tp1125
a(I2
g131
tp1126
a(I3
g123
tp1127
a(I0
g123
tp1128
a(I1
g123
tp1129
a(I2
g131
tp1130
a(I3
g123
tp1131
a(I0
g125
tp1132
a(I1
g125
tp1133
a(I2
g125
tp1134
a(I3
g127
tp1135
a(I0
g123
tp1136
a(I1
g123
tp1137
a(I2
g131
tp1138
a(I3
g123
tp1139
a(I0
g125
tp1140
a(I1
g125
tp1141
a(I2
g131
tp1142
a(I3
g125
tp1143
a(I0
g123
tp1144
a(I1
g123
tp1145
a(I2
g123
tp1146
a(I3
g123
tp1147
a(I0
g125
tp1148
a(I1
g125
tp1149
a(I2
g131
tp1150
a(I3
g125
tp1151
a(I0
g123
tp1152
a(I1
g123
tp1153
a(I2
g131
tp1154
a(I3
g123
tp1155
a(I0
g125
tp1156
a(I1
g125
tp1157
a(I2
g131
tp1158
a(I3
g125
tp1159
a(I0
g123
tp1160
a(I1
g123
tp1161
a(I2
g131
tp1162
a(I3
g125
tp1163
a(I0
g125
tp1164
a(I1
g125
tp1165
a(I2
g131
tp1166
a(I3
g125
tp1167
a(I0
g123
tp1168
a(I1
g123
tp1169
a(I2
g131
tp1170
a(I3
g131
tp1171
a(I0
g125
tp1172
a(I1
g125
tp1173
a(I2
g123
tp1174
a(I3
g125
tp1175
a(I0
g123
tp1176
a(I1
g123
tp1177
a(I2
g131
tp1178
a(I3
g125
tp1179
a(I0
g125
tp1180
a(I1
g125
tp1181
a(I2
g131
tp1182
a(I3
g125
tp1183
a(I0
g123
tp1184
a(I1
g123
tp1185
a(I2
g131
tp1186
a(I3
g125
tp1187
a(I0
g125
tp1188
a(I1
g125
tp1189
a(I2
g127
tp1190
a(I3
g123
tp1191
a(I0
g123
tp1192
a(I1
g123
tp1193
a(I2
g127
tp1194
a(I3
g131
tp1195
a(I0
g125
tp1196
a(I1
g125
tp1197
a(I2
g127
tp1198
a(I3
g131
tp1199
a(I0
g123
tp1200
a(I1
g123
tp1201
a(I2
g127
tp1202
a(I3
g131
tp1203
a(I0
g125
tp1204
a(I1
g125
tp1205
a(I2
g127
tp1206
a(I3
g123
tp1207
a(I0
g123
tp1208
a(I1
g123
tp1209
a(I2
g127
tp1210
a(I3
g131
tp1211
a(I0
g125
tp1212
a(I1
g125
tp1213
a(I2
g125
tp1214
a(I3
g131
tp1215
a(I0
g123
tp1216
a(I1
g123
tp1217
a(I2
g125
tp1218
a(I3
g131
tp1219
a(I0
g125
tp1220
a(I1
g125
tp1221
a(I2
g125
tp1222
a(I3
g123
tp1223
a(I0
g123
tp1224
a(I1
g123
tp1225
a(I2
g125
tp1226
a(I3
g131
tp1227
a(I0
g125
tp1228
a(I1
g125
tp1229
a(I2
g125
tp1230
a(I3
g131
tp1231
a(I0
g123
tp1232
a(I1
g123
tp1233
a(I2
g125
tp1234
a(I3
g125
tp1235
a(I0
g125
tp1236
a(I1
g125
tp1237
a(I2
g127
tp1238
a(I3
g131
tp1239
a(I0
g123
tp1240
a(I1
g123
tp1241
a(I2
g127
tp1242
a(I3
g131
tp1243
a(I0
g125
tp1244
a(I1
g125
tp1245
a(I2
g127
tp1246
a(I3
g131
tp1247
a(I0
g123
tp1248
a(I1
g123
tp1249
a(I2
g123
tp1250
a(I3
g131
tp1251
a(I0
g125
tp1252
a(I1
g125
tp1253
a(I2
g127
tp1254
a(I3
g123
tp1255
a(I0
g123
tp1256
a(I1
g123
tp1257
a(I2
g127
tp1258
a(I3
g125
tp1259
a(I0
g125
tp1260
a(I1
g125
tp1261
a(I2
g127
tp1262
a(I3
g127
tp1263
a(I0
g123
tp1264
a(I1
g123
tp1265
a(I2
g125
tp1266
a(I3
g127
tp1267
a(I0
g125
tp1268
a(I1
g125
tp1269
a(I2
g125
tp1270
a(I3
g127
tp1271
a(I0
g123
tp1272
a(I1
g123
tp1273
a(I2
g131
tp1274
a(I3
g123
tp1275
a(I0
g125
tp1276
a(I1
g125
tp1277
a(I2
g127
tp1278
a(I3
g127
tp1279
a(I0
g123
tp1280
a(I1
g123
tp1281
a(I2
g123
tp1282
a(I3
g127
tp1283
a(I0
g125
tp1284
a(I1
g125
tp1285
a(I2
g123
tp1286
a(I3
g127
tp1287
a(I0
g125
tp1288
a(I1
g125
tp1289
a(I2
g131
tp1290
a(I3
g125
tp1291
a(I0
g127
tp1292
a(I1
g127
tp1293
a(I2
g131
tp1294
a(I3
g127
tp1295
a(I0
g125
tp1296
a(I1
g127
tp1297
a(I2
g131
tp1298
a(I3
g127
tp1299
a(I0
g125
tp1300
a(I1
g125
tp1301
a(I2
g131
tp1302
a(I3
g127
tp1303
a(I0
g131
tp1304
a(I1
g125
tp1305
a(I2
g125
tp1306
a(I3
g125
tp1307
a(I0
g131
tp1308
a(I1
g131
tp1309
a(I2
g131
tp1310
a(I3
g127
tp1311
a(I0
g131
tp1312
a(I1
g131
tp1313
a(I2
g131
tp1314
a(I3
g127
tp1315
a(I0
g131
tp1316
a(I1
g131
tp1317
a(I2
g123
tp1318
a(I3
g127
tp1319
a(I0
g131
tp1320
a(I1
g127
tp1321
a(I2
g123
tp1322
a(I3
g125
tp1323
a(I0
g127
tp1324
a(I1
g131
tp1325
a(I2
g123
tp1326
a(I3
g123
tp1327
asS'length'
p1328
I1200
sS'agents'
p1329
(lp1330
(igame
Agent
p1331
(dp1332
S'index'
p1333
I0
sba(igame
Agent
p1334
(dp1335
g1333
I0
sba(igame
Agent
p1336
(dp1337
g1333
I0
sba(igame
Agent
p1338
(dp1339
g1333
I0
sbasS'redTeamName'
p1340
S'Red'
p1341
s.