(dp1
S'layout'
p2
(ilayout
Layout
p3
(dp4
S'capsules'
p5
(lp6
(I7
I1
tp7
a(I10
I2
tp8
a(I23
I15
tp9
a(I26
I16
tp10
asS'numGhosts'
p11
I4
sS'food'
p12
(igame
Grid
p13
(dp14
S'CELLS_PER_INT'
p15
I30
sS'width'
p16
I34
sS'data'
p17
(lp18
(lp19
I00
aI00
aI00
aI00
aI00
aI00
aI00
aI00
aI00
aI00
aI00
aI00
aI00
aI00
aI00
aI00
aI00
aI00
aa(lp20
I00
aI00
aI00
aI00
aI00
aI00
aI00
aI00
aI00
aI00
aI00
aI00
aI00
aI00
aI00
aI00
aI00
aI00
aa(lp21
I00
aI00
aI00
aI00
aI00
aI00
aI00
aI00
aI00
aI00
aI00
aI00
aI00
aI00
aI00
aI00
aI00
aI00
aa(lp22
I00
aI00
aI00
aI00
aI00
aI01
aI00
aI00
aI00
aI00
aI00
aI00
aI00
aI01
aI00
aI00
aI01
aI00
aa(lp23
I00
aI00
aI00
aI00
aI00
aI00
aI00
aI00
aI00
aI00
aI00
aI00
aI00
aI00
aI00
aI00
aI00
aI00
aa(lp24
I00
aI00
aI00
aI00
aI00
aI00
aI00
aI01
aI00
aI00
aI00
aI00
aI00
aI00
aI00
aI00
aI00
aI00
aa(lp25
I00
aI00
aI00
aI00
aI00
aI00
aI00
aI00
aI00
aI00
aI00
aI00
aI00
aI00
aI00
aI00
aI00
aI00
aa(lp26
I00
aI00
aI01
aI00
aI00
aI00
aI00
aI00
aI00
aI00
aI01
aI00
aI00
aI00
aI01
aI00
aI01
aI00
aa(lp27
I00
aI00
aI01
aI00
aI00
aI00
aI00
aI00
aI00
aI00
aI01
aI00
aI00
aI00
aI00
aI00
aI01
aI00
aa(lp28
I00
aI00
aI00
aI00
aI00
aI00
aI00
aI00
aI00
aI01
aI00
aI00
aI01
aI00
aI01
aI00
aI01
aI00
aa(lp29
I00
aI00
aI00
aI00
aI00
aI00
aI00
aI00
aI00
aI00
aI00
aI00
aI00
aI00
aI00
aI00
aI00
aI00
aa(lp30
I00
aI01
aI01
aI01
aI00
aI01
aI01
aI00
aI00
aI00
aI00
aI00
aI00
aI00
aI00
aI00
aI00
aI00
aa(lp31
I00
aI00
aI01
aI00
aI00
aI00
aI00
aI00
aI00
aI00
aI00
aI00
aI00
aI00
aI00
aI00
aI00
aI00
aa(lp32
I00
aI00
aI00
aI00
aI00
aI01
aI00
aI00
aI01
aI00
aI01
aI00
aI00
aI00
aI01
aI00
aI00
aI00
aa(lp33
I00
aI00
aI00
aI00
aI00
aI01
aI00
aI00
aI01
aI00
aI00
aI01
aI00
aI00
aI01
aI00
aI01
aI00
aa(lp34
I00
aI00
aI00
aI00
aI00
aI00
aI00
aI00
aI00
aI00
aI00
aI00
aI00
aI00
aI00
aI00
aI00
aI00
aa(lp35
I00
aI00
aI00
aI00
aI00
aI00
aI00
aI00
aI00
aI00
aI00
aI00
aI00
aI00
aI00
aI00
aI00
aI00
aa(lp36
I00
aI00
aI00
aI00
aI00
aI00
aI00
aI00
aI00
aI00
aI00
aI00
aI00
aI00
aI00
aI00
aI00
aI00
aa(lp37
I00
aI00
aI00
aI00
aI00
aI00
aI00
aI00
aI00
aI00
aI00
aI00
aI00
aI00
aI00
aI00
aI00
aI00
aa(lp38
I00
aI01
aI00
aI01
aI00
aI00
aI01
aI00
aI00
aI01
aI00
aI00
aI01
aI00
aI00
aI00
aI00
aI00
aa(lp39
I00
aI00
aI00
aI01
aI00
aI00
aI00
aI01
aI00
aI01
aI00
aI00
aI01
aI00
aI00
aI00
aI00
aI00
aa(lp40
I00
aI00
aI00
aI00
aI00
aI00
aI00
aI00
aI00
aI00
aI00
aI00
aI00
aI00
aI00
aI01
aI00
aI00
aa(lp41
I00
aI00
aI00
aI00
aI00
aI00
aI00
aI00
aI00
aI00
aI00
aI01
aI01
aI00
aI01
aI01
aI01
aI00
aa(lp42
I00
aI00
aI00
aI00
aI00
aI00
aI00
aI00
aI00
aI00
aI00
aI00
aI00
aI00
aI00
aI00
aI00
aI00
aa(lp43
I00
aI01
aI00
aI01
aI00
aI01
aI00
aI00
aI01
aI00
aI00
aI00
aI00
aI00
aI00
aI00
aI00
aI00
aa(lp44
I00
aI01
aI00
aI00
aI00
aI00
aI00
aI01
aI00
aI00
aI00
aI00
aI00
aI00
aI00
aI01
aI00
aI00
aa(lp45
I00
aI01
aI00
aI01
aI00
aI00
aI00
aI01
aI00
aI00
aI00
aI00
aI00
aI00
aI00
aI01
aI00
aI00
aa(lp46
I00
aI00
aI00
aI00
aI00
aI00
aI00
aI00
aI00
aI00
aI00
aI00
aI00
aI00
aI00
aI00
aI00
aI00
aa(lp47
I00
aI00
aI00
aI00
aI00
aI00
aI00
aI00
aI00
aI00
aI01
aI00
aI00
aI00
aI00
aI00
aI00
aI00
aa(lp48
I00
aI00
aI00
aI00
aI00
aI00
aI00
aI00
aI00
aI00
aI00
aI00
aI00
aI00
aI00
aI00
aI00
aI00
aa(lp49
I00
aI01
aI00
aI00
aI01
aI00
aI00
aI00
aI00
aI00
aI00
aI00
aI01
aI00
aI00
aI00
aI00
aI00
aa(lp50
I00
aI00
aI00
aI00
aI00
aI00
aI00
aI00
aI00
aI00
aI00
aI00
aI00
aI00
aI00
aI00
aI00
aI00
aa(lp51
I00
aI00
aI00
aI00
aI00
aI00
aI00
aI00
aI00
aI00
aI00
aI00
aI00
aI00
aI00
aI00
aI00
aI00
aa(lp52
I00
aI00
aI00
aI00
aI00
aI00
aI00
aI00
aI00
aI00
aI00
aI00
aI00
aI00
aI00
aI00
aI00
aI00
aasS'height'
p53
I18
sbsS'agentPositions'
p54
(lp55
(I00
(I1
I2
tp56
tp57
a(I00
(I32
I15
tp58
tp59
a(I00
(I1
I1
tp60
tp61
a(I00
(I32
I16
tp62
tp63
asg53
I18
sg16
I34
sS'walls'
p64
(igame
Grid
p65
(dp66
g15
I30
sg16
I34
sg17
(lp67
(lp68
I01
aI01
aI01
aI01
aI01
aI01
aI01
aI01
aI01
aI01
aI01
aI01
aI01
aI01
aI01
aI01
aI01
aI01
aa(lp69
I01
aI00
aI00
aI00
aI00
aI00
aI00
aI00
aI00
aI00
aI00
aI00
aI00
aI00
aI00
aI00
aI00
aI01
aa(lp70
I01
aI01
aI01
aI01
aI01
aI01
aI01
aI01
aI01
aI01
aI01
aI01
aI01
aI01
aI01
aI01
aI00
aI01
aa(lp71
I01
aI00
aI00
aI00
aI00
aI00
aI00
aI00
aI00
aI00
aI00
aI00
aI00
aI00
aI00
aI00
aI00
aI01
aa(lp72
I01
aI01
aI01
aI01
aI01
aI01
aI01
aI01
aI01
aI01
aI01
aI01
aI01
aI00
aI01
aI01
aI00
aI01
aa(lp73
I01
aI00
aI00
aI00
aI00
aI00
aI00
aI00
aI00
aI00
aI00
aI00
aI00
aI00
aI00
aI00
aI00
aI01
aa(lp74
I01
aI01
aI00
aI01
aI01
aI01
aI01
aI01
aI01
aI01
aI01
aI01
aI01
aI01
aI00
aI01
aI00
aI01
aa(lp75
I01
aI00
aI00
aI00
aI00
aI00
aI00
aI00
aI00
aI00
aI00
aI00
aI00
aI01
aI00
aI01
aI00
aI01
aa(lp76
I01
aI00
aI00
aI00
aI00
aI00
aI00
aI00
aI00
aI00
aI00
aI00
aI00
aI01
aI00
aI01
aI00
aI01
aa(lp77
I01
aI00
aI00
aI00
aI00
aI00
aI00
aI00
aI00
aI00
aI00
aI00
aI00
aI00
aI00
aI01
aI00
aI01
aa(lp78
I01
aI01
aI00
aI00
aI01
aI01
aI01
aI01
aI01
aI00
aI01
aI01
aI01
aI01
aI01
aI01
aI01
aI01
aa(lp79
I01
aI00
aI00
aI00
aI00
aI00
aI00
aI00
aI00
aI00
aI00
aI00
aI00
aI00
aI00
aI00
aI00
aI01
aa(lp80
I01
aI01
aI00
aI01
aI01
aI01
aI01
aI01
aI01
aI01
aI01
aI01
aI01
aI01
aI01
aI01
aI00
aI01
aa(lp81
I01
aI00
aI00
aI00
aI00
aI00
aI00
aI00
aI00
aI00
aI00
aI00
aI01
aI00
aI00
aI00
aI00
aI01
aa(lp82
I01
aI00
aI00
aI00
aI01
aI00
aI01
aI00
aI00
aI01
aI00
aI00
aI01
aI00
aI00
aI01
aI00
aI01
aa(lp83
I01
aI00
aI01
aI01
aI01
aI01
aI01
aI00
aI00
aI00
aI00
aI00
aI00
aI00
aI00
aI01
aI01
aI01
aa(lp84
I01
aI00
aI00
aI00
aI01
aI00
aI00
aI00
aI00
aI01
aI00
aI00
aI01
aI00
aI00
aI00
aI00
aI01
aa(lp85
I01
aI00
aI00
aI00
aI00
aI01
aI00
aI00
aI01
aI00
aI00
aI00
aI00
aI01
aI00
aI00
aI00
aI01
aa(lp86
I01
aI01
aI01
aI00
aI00
aI00
aI00
aI00
aI00
aI00
aI00
aI01
aI01
aI01
aI01
aI01
aI00
aI01
aa(lp87
I01
aI00
aI01
aI00
aI00
aI01
aI00
aI00
aI01
aI00
aI00
aI01
aI00
aI01
aI00
aI00
aI00
aI01
aa(lp88
I01
aI00
aI00
aI00
aI00
aI01
aI00
aI00
aI00
aI00
aI00
aI00
aI00
aI00
aI00
aI00
aI00
aI01
aa(lp89
I01
aI00
aI01
aI01
aI01
aI01
aI01
aI01
aI01
aI01
aI01
aI01
aI01
aI01
aI01
aI00
aI01
aI01
aa(lp90
I01
aI00
aI00
aI00
aI00
aI00
aI00
aI00
aI00
aI00
aI00
aI00
aI00
aI00
aI00
aI00
aI00
aI01
aa(lp91
I01
aI01
aI01
aI01
aI01
aI01
aI01
aI01
aI00
aI01
aI01
aI01
aI01
aI01
aI00
aI00
aI01
aI01
aa(lp92
I01
aI00
aI01
aI00
aI00
aI00
aI00
aI00
aI00
aI00
aI00
aI00
aI00
aI00
aI00
aI00
aI00
aI01
aa(lp93
I01
aI00
aI01
aI00
aI01
aI00
aI00
aI00
aI00
aI00
aI00
aI00
aI00
aI00
aI00
aI00
aI00
aI01
aa(lp94
I01
aI00
aI01
aI00
aI01
aI00
aI00
aI00
aI00
aI00
aI00
aI00
aI00
aI00
aI00
aI00
aI00
aI01
aa(lp95
I01
aI00
aI01
aI00
aI01
aI01
aI01
aI01
aI01
aI01
aI01
aI01
aI01
aI01
aI01
aI00
aI01
aI01
aa(lp96
I01
aI00
aI00
aI00
aI00
aI00
aI00
aI00
aI00
aI00
aI00
aI00
aI00
aI00
aI00
aI00
aI00
aI01
aa(lp97
I01
aI00
aI01
aI01
aI00
aI01
aI01
aI01
aI01
aI01
aI01
aI01
aI01
aI01
aI01
aI01
aI01
aI01
aa(lp98
I01
aI00
aI00
aI00
aI00
aI00
aI00
aI00
aI00
aI00
aI00
aI00
aI00
aI00
aI00
aI00
aI00
aI01
aa(lp99
I01
aI00
aI01
aI01
aI01
aI01
aI01
aI01
aI01
aI01
aI01
aI01
aI01
aI01
aI01
aI01
aI01
aI01
aa(lp100
I01
aI00
aI00
aI00
aI00
aI00
aI00
aI00
aI00
aI00
aI00
aI00
aI00
aI00
aI00
aI00
aI00
aI01
aa(lp101
I01
aI01
aI01
aI01
aI01
aI01
aI01
aI01
aI01
aI01
aI01
aI01
aI01
aI01
aI01
aI01
aI01
aI01
aasg53
I18
sbsS'totalFood'
p102
I60
sS'layoutText'
p103
(lp104
S'%%%%%%%%%%%%%%%%%%%%%%%%%%%%%%%%%%'
p105
aS'%  .   ...%   .%     %.%  o% % %4%'
p106
aS'% % % %%%%% % %%  %  ..o ..  % %2%'
p107
aS'% % %  . .% %..   %  %.    % % % %'
p108
aS'% %.  %%% % %    %%% % %   % % % %'
p109
aS'% % % %  .% %%% % %..%.%   % %.% %'
p110
aS'% % % %   % % .   %% %.%   % % % %'
p111
aS'% % % %.. % %.       % %   %.% % %'
p112
aS'% % % %  .  % % %  ..% %   % % % %'
p113
aS'% % % %   % %..  % % %  .  % % % %'
p114
aS'% % %.%   % %       .% % ..% % % %'
p115
aS'% % % %   %.% %%   . % %   % % % %'
p116
aS'% %.% %   %.%..% % %%% %.  % % % %'
p117
aS'% % % %   % % %%%    % % %%%  .% %'
p118
aS'% % % %    .%  %   ..% %. .  % % %'
p119
aS'%1% %  .. o..  %  %% % %%%%% % % %'
p120
aS'%3% % %o  %.%     %.   %...   .  %'
p121
aS'%%%%%%%%%%%%%%%%%%%%%%%%%%%%%%%%%%'
p122
asbsS'blueTeamName'
p123
S'Blue'
p124
sS'actions'
p125
(lp126
(I1
S'South'
p127
tp128
a(I2
S'North'
p129
tp130
a(I3
g127
tp131
a(I0
g129
tp132
a(I1
g127
tp133
a(I2
g129
tp134
a(I3
g127
tp135
a(I0
g129
tp136
a(I1
g127
tp137
a(I2
g129
tp138
a(I3
g127
tp139
a(I0
g129
tp140
a(I1
g127
tp141
a(I2
g129
tp142
a(I3
g127
tp143
a(I0
g129
tp144
a(I1
g127
tp145
a(I2
g129
tp146
a(I3
g127
tp147
a(I0
g129
tp148
a(I1
g127
tp149
a(I2
g129
tp150
a(I3
g127
tp151
a(I0
g129
tp152
a(I1
g127
tp153
a(I2
g129
tp154
a(I3
g127
tp155
a(I0
g129
tp156
a(I1
g127
tp157
a(I2
g129
tp158
a(I3
g127
tp159
a(I0
g129
tp160
a(I1
g127
tp161
a(I2
g129
tp162
a(I3
g127
tp163
a(I0
g129
tp164
a(I1
g127
tp165
a(I2
g129
tp166
a(I3
g127
tp167
a(I0
g129
tp168
a(I1
g127
tp169
a(I2
g129
tp170
a(I3
g127
tp171
a(I0
g129
tp172
a(I1
g127
tp173
a(I2
g129
tp174
a(I3
g127
tp175
a(I0
g129
tp176
a(I1
g127
tp177
a(I2
g129
tp178
a(I3
g127
tp179
a(I0
g129
tp180
a(I1
g127
tp181
a(I2
g129
tp182
a(I3
g127
tp183
a(I0
g129
tp184
a(I1
S'West'
p185
tp186
a(I2
g129
tp187
a(I3
g127
tp188
a(I0
S'East'
p189
tp190
a(I1
g185
tp191
a(I2
g189
tp192
a(I3
g185
tp193
a(I0
g189
tp194
a(I1
g129
tp195
a(I2
g189
tp196
a(I3
g185
tp197
a(I0
g189
tp198
a(I1
g129
tp199
a(I2
g189
tp200
a(I3
g185
tp201
a(I0
g189
tp202
a(I1
g129
tp203
a(I2
g189
tp204
a(I3
g185
tp205
a(I0
g127
tp206
a(I1
g185
tp207
a(I2
g127
tp208
a(I3
g129
tp209
a(I0
g127
tp210
a(I1
g185
tp211
a(I2
g127
tp212
a(I3
g129
tp213
a(I0
g189
tp214
a(I1
g129
tp215
a(I2
g189
tp216
a(I3
g185
tp217
a(I0
g189
tp218
a(I1
g129
tp219
a(I2
g189
tp220
a(I3
g185
tp221
a(I0
g189
tp222
a(I1
g129
tp223
a(I2
g189
tp224
a(I3
g185
tp225
a(I0
g189
tp226
a(I1
g129
tp227
a(I2
g189
tp228
a(I3
g185
tp229
a(I0
g127
tp230
a(I1
g129
tp231
a(I2
g127
tp232
a(I3
g129
tp233
a(I0
g127
tp234
a(I1
g129
tp235
a(I2
g127
tp236
a(I3
g129
tp237
a(I0
g127
tp238
a(I1
g129
tp239
a(I2
g127
tp240
a(I3
g129
tp241
a(I0
g127
tp242
a(I1
g129
tp243
a(I2
g127
tp244
a(I3
g129
tp245
a(I0
g127
tp246
a(I1
g129
tp247
a(I2
g127
tp248
a(I3
g129
tp249
a(I0
g189
tp250
a(I1
g129
tp251
a(I2
g189
tp252
a(I3
g185
tp253
a(I0
g189
tp254
a(I1
g129
tp255
a(I2
g189
tp256
a(I3
g185
tp257
a(I0
g129
tp258
a(I1
g185
tp259
a(I2
g127
tp260
a(I3
g127
tp261
a(I0
g129
tp262
a(I1
g185
tp263
a(I2
g127
tp264
a(I3
g127
tp265
a(I0
g129
tp266
a(I1
g185
tp267
a(I2
g127
tp268
a(I3
g127
tp269
a(I0
g129
tp270
a(I1
g185
tp271
a(I2
g127
tp272
a(I3
g127
tp273
a(I0
g129
tp274
a(I1
g185
tp275
a(I2
g127
tp276
a(I3
g127
tp277
a(I0
g129
tp278
a(I1
g185
tp279
a(I2
g127
tp280
a(I3
g127
tp281
a(I0
g129
tp282
a(I1
g185
tp283
a(I2
g127
tp284
a(I3
g127
tp285
a(I0
g189
tp286
a(I1
g185
tp287
a(I2
g189
tp288
a(I3
g185
tp289
a(I0
g189
tp290
a(I1
g129
tp291
a(I2
g189
tp292
a(I3
g185
tp293
a(I0
g127
tp294
a(I1
g185
tp295
a(I2
g189
tp296
a(I3
g129
tp297
a(I0
g127
tp298
a(I1
g185
tp299
a(I2
g127
tp300
a(I3
g129
tp301
a(I0
g189
tp302
a(I1
g185
tp303
a(I2
g189
tp304
a(I3
g185
tp305
a(I0
g189
tp306
a(I1
g189
tp307
a(I2
g189
tp308
a(I3
g185
tp309
a(I0
g127
tp310
a(I1
g185
tp311
a(I2
g185
tp312
a(I3
g129
tp313
a(I0
g127
tp314
a(I1
g127
tp315
a(I2
g189
tp316
a(I3
g129
tp317
a(I0
g127
tp318
a(I1
g127
tp319
a(I2
g189
tp320
a(I3
g127
tp321
a(I0
g189
tp322
a(I1
g185
tp323
a(I2
g185
tp324
a(I3
g129
tp325
a(I0
g189
tp326
a(I1
g185
tp327
a(I2
g189
tp328
a(I3
g129
tp329
a(I0
g127
tp330
a(I1
g189
tp331
a(I2
g129
tp332
a(I3
g129
tp333
a(I0
g189
tp334
a(I1
g189
tp335
a(I2
g129
tp336
a(I3
g185
tp337
a(I0
g189
tp338
a(I1
g129
tp339
a(I2
g189
tp340
a(I3
g185
tp341
a(I0
g189
tp342
a(I1
g129
tp343
a(I2
g129
tp344
a(I3
g129
tp345
a(I0
g129
tp346
a(I1
g189
tp347
a(I2
g129
tp348
a(I3
g185
tp349
a(I0
g129
tp350
a(I1
g189
tp351
a(I2
g127
tp352
a(I3
g185
tp353
a(I0
g185
tp354
a(I1
g127
tp355
a(I2
g189
tp356
a(I3
g185
tp357
a(I0
g189
tp358
a(I1
g127
tp359
a(I2
g127
tp360
a(I3
g129
tp361
a(I0
g127
tp362
a(I1
g189
tp363
a(I2
g189
tp364
a(I3
g129
tp365
a(I0
g127
tp366
a(I1
g127
tp367
a(I2
g127
tp368
a(I3
g129
tp369
a(I0
g127
tp370
a(I1
g127
tp371
a(I2
g127
tp372
a(I3
g189
tp373
a(I0
g185
tp374
a(I1
g127
tp375
a(I2
g185
tp376
a(I3
g189
tp377
a(I0
g185
tp378
a(I1
g127
tp379
a(I2
g189
tp380
a(I3
g129
tp381
a(I0
g185
tp382
a(I1
g127
tp383
a(I2
g129
tp384
a(I3
g129
tp385
a(I0
g129
tp386
a(I1
g129
tp387
a(I2
g129
tp388
a(I3
g129
tp389
a(I0
g185
tp390
a(I1
g127
tp391
a(I2
g185
tp392
a(I3
g185
tp393
a(I0
g185
tp394
a(I1
g127
tp395
a(I2
g185
tp396
a(I3
g185
tp397
a(I0
g129
tp398
a(I1
g127
tp399
a(I2
g185
tp400
a(I3
g129
tp401
a(I0
g129
tp402
a(I1
g127
tp403
a(I2
g185
tp404
a(I3
g129
tp405
a(I0
g129
tp406
a(I1
g129
tp407
a(I2
g127
tp408
a(I3
g185
tp409
a(I0
g185
tp410
a(I1
g185
tp411
a(I2
g189
tp412
a(I3
g185
tp413
a(I0
g185
tp414
a(I1
g185
tp415
a(I2
g129
tp416
a(I3
g127
tp417
a(I0
g129
tp418
a(I1
g185
tp419
a(I2
g189
tp420
a(I3
g127
tp421
a(I0
g129
tp422
a(I1
g185
tp423
a(I2
g129
tp424
a(I3
g127
tp425
a(I0
g129
tp426
a(I1
g185
tp427
a(I2
g129
tp428
a(I3
g127
tp429
a(I0
g127
tp430
a(I1
g185
tp431
a(I2
g129
tp432
a(I3
g127
tp433
a(I0
g127
tp434
a(I1
g185
tp435
a(I2
g189
tp436
a(I3
g127
tp437
a(I0
g189
tp438
a(I1
g127
tp439
a(I2
g189
tp440
a(I3
g127
tp441
a(I0
g189
tp442
a(I1
g127
tp443
a(I2
g129
tp444
a(I3
g127
tp445
a(I0
g189
tp446
a(I1
g127
tp447
a(I2
g129
tp448
a(I3
g127
tp449
a(I0
g189
tp450
a(I1
g129
tp451
a(I2
g129
tp452
a(I3
g127
tp453
a(I0
g129
tp454
a(I1
g129
tp455
a(I2
g129
tp456
a(I3
g127
tp457
a(I0
g129
tp458
a(I1
g129
tp459
a(I2
g129
tp460
a(I3
g127
tp461
a(I0
g189
tp462
a(I1
g189
tp463
a(I2
g129
tp464
a(I3
g127
tp465
a(I0
g189
tp466
a(I1
g189
tp467
a(I2
g129
tp468
a(I3
g127
tp469
a(I0
g189
tp470
a(I1
g189
tp471
a(I2
g129
tp472
a(I3
g127
tp473
a(I0
g127
tp474
a(I1
g189
tp475
a(I2
g127
tp476
a(I3
g129
tp477
a(I0
g127
tp478
a(I1
g189
tp479
a(I2
g127
tp480
a(I3
g189
tp481
a(I0
g127
tp482
a(I1
g129
tp483
a(I2
g127
tp484
a(I3
g189
tp485
a(I0
g127
tp486
a(I1
g129
tp487
a(I2
g129
tp488
a(I3
g129
tp489
a(I0
g129
tp490
a(I1
g129
tp491
a(I2
g129
tp492
a(I3
g129
tp493
a(I0
g129
tp494
a(I1
g189
tp495
a(I2
g129
tp496
a(I3
g129
tp497
a(I0
g185
tp498
a(I1
g189
tp499
a(I2
g185
tp500
a(I3
g189
tp501
a(I0
g129
tp502
a(I1
g129
tp503
a(I2
g129
tp504
a(I3
g185
tp505
a(I0
g129
tp506
a(I1
g129
tp507
a(I2
g129
tp508
a(I3
g127
tp509
a(I0
g185
tp510
a(I1
g129
tp511
a(I2
g185
tp512
a(I3
g127
tp513
a(I0
g185
tp514
a(I1
g129
tp515
a(I2
g185
tp516
a(I3
g127
tp517
a(I0
g185
tp518
a(I1
g129
tp519
a(I2
S'Stop'
p520
tp521
a(I3
g185
tp522
a(I0
g127
tp523
a(I1
g129
tp524
a(I2
g127
tp525
a(I3
g185
tp526
a(I0
g127
tp527
a(I1
g185
tp528
a(I2
g185
tp529
a(I3
g185
tp530
a(I0
g185
tp531
a(I1
g185
tp532
a(I2
g127
tp533
a(I3
g185
tp534
a(I0
g127
tp535
a(I1
g185
tp536
a(I2
g185
tp537
a(I3
g185
tp538
a(I0
g127
tp539
a(I1
g127
tp540
a(I2
g127
tp541
a(I3
g185
tp542
a(I0
g127
tp543
a(I1
g127
tp544
a(I2
g127
tp545
a(I3
g185
tp546
a(I0
g189
tp547
a(I1
g185
tp548
a(I2
g127
tp549
a(I3
g185
tp550
a(I0
g189
tp551
a(I1
g185
tp552
a(I2
g189
tp553
a(I3
g129
tp554
a(I0
g127
tp555
a(I1
g185
tp556
a(I2
g189
tp557
a(I3
g129
tp558
a(I0
g189
tp559
a(I1
g189
tp560
a(I2
g127
tp561
a(I3
g129
tp562
a(I0
g189
tp563
a(I1
g189
tp564
a(I2
g189
tp565
a(I3
g129
tp566
a(I0
g189
tp567
a(I1
g189
tp568
a(I2
g189
tp569
a(I3
g129
tp570
a(I0
g129
tp571
a(I1
g129
tp572
a(I2
g189
tp573
a(I3
g129
tp574
a(I0
g129
tp575
a(I1
g129
tp576
a(I2
g129
tp577
a(I3
g129
tp578
a(I0
g129
tp579
a(I1
g189
tp580
a(I2
g129
tp581
a(I3
g129
tp582
a(I0
g129
tp583
a(I1
g189
tp584
a(I2
g127
tp585
a(I3
g129
tp586
a(I0
g129
tp587
a(I1
g127
tp588
a(I2
g127
tp589
a(I3
g129
tp590
a(I0
g189
tp591
a(I1
g189
tp592
a(I2
g127
tp593
a(I3
g129
tp594
a(I0
g189
tp595
a(I1
g189
tp596
a(I2
g127
tp597
a(I3
g185
tp598
a(I0
g189
tp599
a(I1
g185
tp600
a(I2
g129
tp601
a(I3
g185
tp602
a(I0
g185
tp603
a(I1
g129
tp604
a(I2
g129
tp605
a(I3
g129
tp606
a(I0
g127
tp607
a(I1
g127
tp608
a(I2
g129
tp609
a(I3
g129
tp610
a(I0
g129
tp611
a(I1
g129
tp612
a(I2
g129
tp613
a(I3
g129
tp614
a(I0
g129
tp615
a(I1
g127
tp616
a(I2
g129
tp617
a(I3
g189
tp618
a(I0
g127
tp619
a(I1
g129
tp620
a(I2
g129
tp621
a(I3
g189
tp622
a(I0
g127
tp623
a(I1
g185
tp624
a(I2
g129
tp625
a(I3
g189
tp626
a(I0
g127
tp627
a(I1
g185
tp628
a(I2
g189
tp629
a(I3
g189
tp630
a(I0
g127
tp631
a(I1
g189
tp632
a(I2
g189
tp633
a(I3
g189
tp634
a(I0
g127
tp635
a(I1
g127
tp636
a(I2
g189
tp637
a(I3
g189
tp638
a(I0
g127
tp639
a(I1
g189
tp640
a(I2
g189
tp641
a(I3
g185
tp642
a(I0
g127
tp643
a(I1
g189
tp644
a(I2
g189
tp645
a(I3
g185
tp646
a(I0
g127
tp647
a(I1
g189
tp648
a(I2
g189
tp649
a(I3
g185
tp650
a(I0
g189
tp651
a(I1
g185
tp652
a(I2
g189
tp653
a(I3
g185
tp654
a(I0
g189
tp655
a(I1
g189
tp656
a(I2
g189
tp657
a(I3
g127
tp658
a(I0
g189
tp659
a(I1
g127
tp660
a(I2
g127
tp661
a(I3
g127
tp662
a(I0
g127
tp663
a(I1
g127
tp664
a(I2
g127
tp665
a(I3
g189
tp666
a(I0
g189
tp667
a(I1
g127
tp668
a(I2
g127
tp669
a(I3
g189
tp670
a(I0
g185
tp671
a(I1
g127
tp672
a(I2
g127
tp673
a(I3
g189
tp674
a(I0
g185
tp675
a(I1
g127
tp676
a(I2
g127
tp677
a(I3
g189
tp678
a(I0
g127
tp679
a(I1
g129
tp680
a(I2
g127
tp681
a(I3
g127
tp682
a(I0
g127
tp683
a(I1
g127
tp684
a(I2
g127
tp685
a(I3
g127
tp686
a(I0
g129
tp687
a(I1
g127
tp688
a(I2
g127
tp689
a(I3
g127
tp690
a(I0
g129
tp691
a(I1
g127
tp692
a(I2
g127
tp693
a(I3
g127
tp694
a(I0
g129
tp695
a(I1
g129
tp696
a(I2
g127
tp697
a(I3
g127
tp698
a(I0
g185
tp699
a(I1
g129
tp700
a(I2
g127
tp701
a(I3
g129
tp702
a(I0
g185
tp703
a(I1
g129
tp704
a(I2
g189
tp705
a(I3
g185
tp706
a(I0
g129
tp707
a(I1
g129
tp708
a(I2
g189
tp709
a(I3
g185
tp710
a(I0
g129
tp711
a(I1
g129
tp712
a(I2
g127
tp713
a(I3
g127
tp714
a(I0
g129
tp715
a(I1
g129
tp716
a(I2
g127
tp717
a(I3
g127
tp718
a(I0
g129
tp719
a(I1
g129
tp720
a(I2
g127
tp721
a(I3
g127
tp722
a(I0
g129
tp723
a(I1
g185
tp724
a(I2
g185
tp725
a(I3
g127
tp726
a(I0
g129
tp727
a(I1
g185
tp728
a(I2
g185
tp729
a(I3
g127
tp730
a(I0
g129
tp731
a(I1
g129
tp732
a(I2
g185
tp733
a(I3
g127
tp734
a(I0
g185
tp735
a(I1
g185
tp736
a(I2
g185
tp737
a(I3
g127
tp738
a(I0
g185
tp739
a(I1
g185
tp740
a(I2
g185
tp741
a(I3
g127
tp742
a(I0
g185
tp743
a(I1
g185
tp744
a(I2
g185
tp745
a(I3
g189
tp746
a(I0
g129
tp747
a(I1
g127
tp748
a(I2
g189
tp749
a(I3
g189
tp750
a(I0
g185
tp751
a(I1
g127
tp752
a(I2
g189
tp753
a(I3
g189
tp754
a(I0
g185
tp755
a(I1
g129
tp756
a(I2
g189
tp757
a(I3
g189
tp758
a(I0
g185
tp759
a(I1
g129
tp760
a(I2
g189
tp761
a(I3
g185
tp762
a(I0
g127
tp763
a(I1
g189
tp764
a(I2
g129
tp765
a(I3
g185
tp766
a(I0
g127
tp767
a(I1
g189
tp768
a(I2
g129
tp769
a(I3
g127
tp770
a(I0
g185
tp771
a(I1
g127
tp772
a(I2
g185
tp773
a(I3
g185
tp774
a(I0
g185
tp775
a(I1
g189
tp776
a(I2
g185
tp777
a(I3
g185
tp778
a(I0
g189
tp779
a(I1
g189
tp780
a(I2
g185
tp781
a(I3
g129
tp782
a(I0
g127
tp783
a(I1
g189
tp784
a(I2
g185
tp785
a(I3
g129
tp786
a(I0
g127
tp787
a(I1
g127
tp788
a(I2
g129
tp789
a(I3
g129
tp790
a(I0
g127
tp791
a(I1
g127
tp792
a(I2
g129
tp793
a(I3
g129
tp794
a(I0
g189
tp795
a(I1
g127
tp796
a(I2
g129
tp797
a(I3
g129
tp798
a(I0
g189
tp799
a(I1
g127
tp800
a(I2
g129
tp801
a(I3
g127
tp802
a(I0
g127
tp803
a(I1
g127
tp804
a(I2
g129
tp805
a(I3
g127
tp806
a(I0
g189
tp807
a(I1
g127
tp808
a(I2
g129
tp809
a(I3
g127
tp810
a(I0
g189
tp811
a(I1
g127
tp812
a(I2
g129
tp813
a(I3
g127
tp814
a(I0
g189
tp815
a(I1
g189
tp816
a(I2
g129
tp817
a(I3
g189
tp818
a(I0
g129
tp819
a(I1
g189
tp820
a(I2
g129
tp821
a(I3
g189
tp822
a(I0
g129
tp823
a(I1
g129
tp824
a(I2
g129
tp825
a(I3
g189
tp826
a(I0
g129
tp827
a(I1
g129
tp828
a(I2
g129
tp829
a(I3
g189
tp830
a(I0
g129
tp831
a(I1
g129
tp832
a(I2
g185
tp833
a(I3
g189
tp834
a(I0
g129
tp835
a(I1
g129
tp836
a(I2
g185
tp837
a(I3
g189
tp838
a(I0
g189
tp839
a(I1
g129
tp840
a(I2
g129
tp841
a(I3
g127
tp842
a(I0
g189
tp843
a(I1
g129
tp844
a(I2
g185
tp845
a(I3
g189
tp846
a(I0
g127
tp847
a(I1
g185
tp848
a(I2
g185
tp849
a(I3
g189
tp850
a(I0
g127
tp851
a(I1
g185
tp852
a(I2
g185
tp853
a(I3
g189
tp854
a(I0
g127
tp855
a(I1
g127
tp856
a(I2
g129
tp857
a(I3
g189
tp858
asS'length'
p859
I1200
sS'agents'
p860
(lp861
(igame
Agent
p862
(dp863
S'index'
p864
I0
sba(igame
Agent
p865
(dp866
g864
I0
sba(igame
Agent
p867
(dp868
g864
I0
sba(igame
Agent
p869
(dp870
g864
I0
sbasS'redTeamName'
p871
S'Red'
p872
s.