(dp1
S'layout'
p2
(ilayout
Layout
p3
(dp4
S'capsules'
p5
(lp6
(I10
I2
tp7
a(I22
I4
tp8
a(I11
I13
tp9
a(I23
I15
tp10
asS'numGhosts'
p11
I4
sS'food'
p12
(igame
Grid
p13
(dp14
S'CELLS_PER_INT'
p15
I30
sS'width'
p16
I34
sS'data'
p17
(lp18
(lp19
I00
aI00
aI00
aI00
aI00
aI00
aI00
aI00
aI00
aI00
aI00
aI00
aI00
aI00
aI00
aI00
aI00
aI00
aa(lp20
I00
aI00
aI00
aI00
aI00
aI00
aI00
aI00
aI00
aI00
aI00
aI00
aI00
aI00
aI00
aI00
aI00
aI00
aa(lp21
I00
aI00
aI00
aI00
aI00
aI00
aI00
aI00
aI00
aI00
aI00
aI00
aI00
aI00
aI00
aI00
aI00
aI00
aa(lp22
I00
aI00
aI00
aI00
aI00
aI00
aI00
aI01
aI00
aI01
aI01
aI00
aI00
aI01
aI00
aI00
aI00
aI00
aa(lp23
I00
aI00
aI00
aI00
aI00
aI00
aI00
aI00
aI00
aI00
aI00
aI00
aI00
aI00
aI00
aI00
aI01
aI00
aa(lp24
I00
aI00
aI00
aI00
aI00
aI00
aI00
aI00
aI00
aI00
aI01
aI00
aI01
aI00
aI00
aI00
aI00
aI00
aa(lp25
I00
aI00
aI00
aI00
aI00
aI00
aI00
aI00
aI00
aI00
aI00
aI00
aI00
aI00
aI00
aI01
aI00
aI00
aa(lp26
I00
aI01
aI01
aI00
aI01
aI01
aI00
aI01
aI00
aI00
aI00
aI00
aI00
aI00
aI00
aI00
aI00
aI00
aa(lp27
I00
aI00
aI00
aI00
aI00
aI00
aI00
aI00
aI00
aI00
aI00
aI00
aI00
aI00
aI00
aI00
aI00
aI00
aa(lp28
I00
aI00
aI00
aI00
aI01
aI00
aI00
aI00
aI00
aI00
aI00
aI00
aI01
aI00
aI00
aI01
aI00
aI00
aa(lp29
I00
aI01
aI00
aI00
aI00
aI00
aI00
aI00
aI00
aI00
aI00
aI01
aI00
aI00
aI00
aI01
aI00
aI00
aa(lp30
I00
aI00
aI00
aI00
aI00
aI00
aI00
aI00
aI00
aI00
aI00
aI00
aI00
aI00
aI00
aI00
aI00
aI00
aa(lp31
I00
aI01
aI00
aI00
aI00
aI01
aI00
aI01
aI00
aI01
aI00
aI00
aI00
aI00
aI00
aI00
aI01
aI00
aa(lp32
I00
aI00
aI00
aI00
aI00
aI00
aI00
aI01
aI00
aI00
aI00
aI01
aI00
aI00
aI00
aI00
aI00
aI00
aa(lp33
I00
aI01
aI00
aI00
aI00
aI00
aI00
aI00
aI00
aI00
aI00
aI01
aI00
aI00
aI01
aI00
aI01
aI00
aa(lp34
I00
aI00
aI00
aI00
aI00
aI00
aI00
aI00
aI00
aI00
aI00
aI00
aI00
aI00
aI00
aI00
aI00
aI00
aa(lp35
I00
aI00
aI00
aI00
aI00
aI00
aI00
aI00
aI00
aI00
aI00
aI00
aI00
aI00
aI00
aI00
aI00
aI00
aa(lp36
I00
aI00
aI00
aI00
aI00
aI00
aI00
aI00
aI00
aI00
aI00
aI00
aI00
aI00
aI00
aI00
aI00
aI00
aa(lp37
I00
aI00
aI00
aI00
aI00
aI00
aI00
aI00
aI00
aI00
aI00
aI00
aI00
aI00
aI00
aI00
aI00
aI00
aa(lp38
I00
aI01
aI00
aI01
aI00
aI00
aI01
aI00
aI00
aI00
aI00
aI00
aI00
aI00
aI00
aI00
aI01
aI00
aa(lp39
I00
aI00
aI00
aI00
aI00
aI00
aI01
aI00
aI00
aI00
aI01
aI00
aI00
aI00
aI00
aI00
aI00
aI00
aa(lp40
I00
aI01
aI00
aI00
aI00
aI00
aI00
aI00
aI01
aI00
aI01
aI00
aI01
aI00
aI00
aI00
aI01
aI00
aa(lp41
I00
aI00
aI00
aI00
aI00
aI00
aI00
aI00
aI00
aI00
aI00
aI00
aI00
aI00
aI00
aI00
aI00
aI00
aa(lp42
I00
aI00
aI01
aI00
aI00
aI00
aI01
aI00
aI00
aI00
aI00
aI00
aI00
aI00
aI00
aI00
aI01
aI00
aa(lp43
I00
aI00
aI01
aI00
aI00
aI01
aI00
aI00
aI00
aI00
aI00
aI00
aI00
aI01
aI00
aI00
aI00
aI00
aa(lp44
I00
aI00
aI00
aI00
aI00
aI00
aI00
aI00
aI00
aI00
aI00
aI00
aI00
aI00
aI00
aI00
aI00
aI00
aa(lp45
I00
aI00
aI00
aI00
aI00
aI00
aI00
aI00
aI00
aI00
aI01
aI00
aI01
aI01
aI00
aI01
aI01
aI00
aa(lp46
I00
aI00
aI01
aI00
aI00
aI00
aI00
aI00
aI00
aI00
aI00
aI00
aI00
aI00
aI00
aI00
aI00
aI00
aa(lp47
I00
aI00
aI00
aI00
aI00
aI01
aI00
aI01
aI00
aI00
aI00
aI00
aI00
aI00
aI00
aI00
aI00
aI00
aa(lp48
I00
aI01
aI00
aI00
aI00
aI00
aI00
aI00
aI00
aI00
aI00
aI00
aI00
aI00
aI00
aI00
aI00
aI00
aa(lp49
I00
aI00
aI00
aI00
aI01
aI00
aI00
aI01
aI01
aI00
aI01
aI00
aI00
aI00
aI00
aI00
aI00
aI00
aa(lp50
I00
aI00
aI00
aI00
aI00
aI00
aI00
aI00
aI00
aI00
aI00
aI00
aI00
aI00
aI00
aI00
aI00
aI00
aa(lp51
I00
aI00
aI00
aI00
aI00
aI00
aI00
aI00
aI00
aI00
aI00
aI00
aI00
aI00
aI00
aI00
aI00
aI00
aa(lp52
I00
aI00
aI00
aI00
aI00
aI00
aI00
aI00
aI00
aI00
aI00
aI00
aI00
aI00
aI00
aI00
aI00
aI00
aasS'height'
p53
I18
sbsS'agentPositions'
p54
(lp55
(I00
(I1
I2
tp56
tp57
a(I00
(I32
I15
tp58
tp59
a(I00
(I1
I1
tp60
tp61
a(I00
(I32
I16
tp62
tp63
asg53
I18
sg16
I34
sS'walls'
p64
(igame
Grid
p65
(dp66
g15
I30
sg16
I34
sg17
(lp67
(lp68
I01
aI01
aI01
aI01
aI01
aI01
aI01
aI01
aI01
aI01
aI01
aI01
aI01
aI01
aI01
aI01
aI01
aI01
aa(lp69
I01
aI00
aI00
aI00
aI00
aI00
aI00
aI00
aI00
aI00
aI00
aI00
aI00
aI00
aI00
aI00
aI00
aI01
aa(lp70
I01
aI01
aI01
aI01
aI01
aI01
aI01
aI01
aI01
aI01
aI01
aI01
aI01
aI01
aI01
aI01
aI00
aI01
aa(lp71
I01
aI00
aI00
aI00
aI00
aI00
aI00
aI00
aI01
aI00
aI00
aI00
aI00
aI00
aI01
aI00
aI00
aI01
aa(lp72
I01
aI01
aI01
aI01
aI01
aI01
aI00
aI01
aI01
aI01
aI01
aI01
aI00
aI00
aI00
aI00
aI00
aI01
aa(lp73
I01
aI00
aI00
aI00
aI00
aI00
aI00
aI00
aI00
aI00
aI00
aI00
aI00
aI00
aI01
aI00
aI01
aI01
aa(lp74
I01
aI01
aI01
aI01
aI00
aI01
aI01
aI01
aI01
aI01
aI01
aI01
aI01
aI01
aI01
aI00
aI00
aI01
aa(lp75
I01
aI00
aI00
aI00
aI00
aI00
aI00
aI00
aI00
aI00
aI00
aI00
aI00
aI00
aI00
aI00
aI00
aI01
aa(lp76
I01
aI01
aI01
aI01
aI01
aI01
aI01
aI00
aI01
aI01
aI01
aI00
aI01
aI01
aI01
aI01
aI00
aI01
aa(lp77
I01
aI00
aI00
aI01
aI00
aI00
aI00
aI00
aI01
aI00
aI00
aI00
aI00
aI00
aI00
aI00
aI00
aI01
aa(lp78
I01
aI00
aI00
aI01
aI00
aI00
aI01
aI00
aI00
aI00
aI01
aI00
aI01
aI00
aI01
aI00
aI00
aI01
aa(lp79
I01
aI01
aI00
aI01
aI01
aI01
aI01
aI01
aI01
aI01
aI01
aI01
aI01
aI00
aI01
aI01
aI01
aI01
aa(lp80
I01
aI00
aI00
aI01
aI00
aI00
aI00
aI00
aI00
aI00
aI00
aI00
aI00
aI00
aI00
aI00
aI00
aI01
aa(lp81
I01
aI01
aI00
aI01
aI00
aI00
aI00
aI00
aI00
aI00
aI00
aI00
aI00
aI00
aI00
aI01
aI00
aI01
aa(lp82
I01
aI00
aI00
aI01
aI01
aI01
aI01
aI01
aI01
aI01
aI01
aI00
aI01
aI01
aI00
aI00
aI00
aI01
aa(lp83
I01
aI00
aI00
aI00
aI00
aI00
aI00
aI01
aI00
aI00
aI00
aI00
aI00
aI01
aI01
aI00
aI01
aI01
aa(lp84
I01
aI00
aI00
aI00
aI00
aI01
aI00
aI00
aI00
aI00
aI00
aI00
aI00
aI01
aI00
aI00
aI00
aI01
aa(lp85
I01
aI00
aI00
aI00
aI01
aI00
aI00
aI00
aI00
aI00
aI00
aI00
aI01
aI00
aI00
aI00
aI00
aI01
aa(lp86
I01
aI01
aI00
aI01
aI01
aI00
aI00
aI00
aI00
aI00
aI01
aI00
aI00
aI00
aI00
aI00
aI00
aI01
aa(lp87
I01
aI00
aI00
aI00
aI01
aI01
aI00
aI01
aI01
aI01
aI01
aI01
aI01
aI01
aI01
aI00
aI00
aI01
aa(lp88
I01
aI00
aI01
aI00
aI00
aI00
aI00
aI00
aI00
aI00
aI00
aI00
aI00
aI00
aI01
aI00
aI01
aI01
aa(lp89
I01
aI00
aI00
aI00
aI00
aI00
aI00
aI00
aI00
aI00
aI00
aI00
aI00
aI00
aI01
aI00
aI00
aI01
aa(lp90
I01
aI01
aI01
aI01
aI00
aI01
aI01
aI01
aI01
aI01
aI01
aI01
aI01
aI01
aI01
aI00
aI01
aI01
aa(lp91
I01
aI00
aI00
aI01
aI00
aI01
aI00
aI01
aI00
aI00
aI00
aI01
aI00
aI00
aI01
aI00
aI00
aI01
aa(lp92
I01
aI00
aI00
aI00
aI00
aI00
aI00
aI00
aI00
aI01
aI00
aI00
aI00
aI00
aI01
aI00
aI00
aI01
aa(lp93
I01
aI00
aI01
aI01
aI01
aI01
aI00
aI01
aI01
aI01
aI00
aI01
aI01
aI01
aI01
aI01
aI01
aI01
aa(lp94
I01
aI00
aI00
aI00
aI00
aI00
aI00
aI00
aI00
aI00
aI00
aI00
aI00
aI00
aI00
aI00
aI00
aI01
aa(lp95
I01
aI00
aI00
aI01
aI01
aI01
aI01
aI01
aI01
aI01
aI01
aI01
aI01
aI00
aI01
aI01
aI01
aI01
aa(lp96
I01
aI01
aI00
aI01
aI00
aI00
aI00
aI00
aI00
aI00
aI00
aI00
aI00
aI00
aI00
aI00
aI00
aI01
aa(lp97
I01
aI00
aI00
aI00
aI00
aI00
aI01
aI01
aI01
aI01
aI01
aI00
aI01
aI01
aI01
aI01
aI01
aI01
aa(lp98
I01
aI00
aI00
aI01
aI00
aI00
aI00
aI00
aI00
aI01
aI00
aI00
aI00
aI00
aI00
aI00
aI00
aI01
aa(lp99
I01
aI00
aI01
aI01
aI01
aI01
aI01
aI01
aI01
aI01
aI01
aI01
aI01
aI01
aI01
aI01
aI01
aI01
aa(lp100
I01
aI00
aI00
aI00
aI00
aI00
aI00
aI00
aI00
aI00
aI00
aI00
aI00
aI00
aI00
aI00
aI00
aI01
aa(lp101
I01
aI01
aI01
aI01
aI01
aI01
aI01
aI01
aI01
aI01
aI01
aI01
aI01
aI01
aI01
aI01
aI01
aI01
aasg53
I18
sbsS'totalFood'
p102
I60
sS'layoutText'
p103
(lp104
S'%%%%%%%%%%%%%%%%%%%%%%%%%%%%%%%%%%'
p105
aS'%   .%     %. .%   .%.%. %.% % %4%'
p106
aS'% %   . %..% %         o %.% % %2%'
p107
aS'% %% %% % %%  .%   %%%%%%% % % % %'
p108
aS'% %.  % %  o  %%%  %  % .%.  % % %'
p109
aS'% %  .% %.%%  %  % % .%  %.% % % %'
p110
aS'% % % %   .% ..    %  %% % %   % %'
p111
aS'% %.%.% % %%  %   %%..%   .% %.% %'
p112
aS'% %.% % %  %. %    %  % %% % %%% %'
p113
aS'% %%% % %% %  %    % .%  % % %.% %'
p114
aS'% %.% %.   %..%%   %  %% % %.%.% %'
p115
aS'% %   % % %%  %    .. %.   % % % %'
p116
aS'% % % %.%  %. % %  %  %%.% %.  % %'
p117
aS'% % %  .%. %  %  %%%  o  % %  .% %'
p118
aS'% % % % %%%%%%%   %.  %% % %% %% %'
p119
aS'%1% % %.% o         % %..% .   % %'
p120
aS'%3% % %.% .%.%.   %. .%     %.   %'
p121
aS'%%%%%%%%%%%%%%%%%%%%%%%%%%%%%%%%%%'
p122
asbsS'blueTeamName'
p123
S'Blue'
p124
sS'actions'
p125
(lp126
(I0
S'North'
p127
tp128
a(I1
S'South'
p129
tp130
a(I2
g127
tp131
a(I3
g129
tp132
a(I0
g127
tp133
a(I1
g129
tp134
a(I2
g127
tp135
a(I3
g129
tp136
a(I0
g127
tp137
a(I1
g129
tp138
a(I2
g127
tp139
a(I3
g129
tp140
a(I0
g127
tp141
a(I1
g129
tp142
a(I2
g127
tp143
a(I3
g129
tp144
a(I0
g127
tp145
a(I1
g129
tp146
a(I2
g127
tp147
a(I3
g129
tp148
a(I0
g127
tp149
a(I1
g129
tp150
a(I2
g127
tp151
a(I3
g129
tp152
a(I0
g127
tp153
a(I1
g129
tp154
a(I2
g127
tp155
a(I3
g129
tp156
a(I0
g127
tp157
a(I1
g129
tp158
a(I2
g127
tp159
a(I3
g129
tp160
a(I0
g127
tp161
a(I1
g129
tp162
a(I2
g127
tp163
a(I3
g129
tp164
a(I0
g127
tp165
a(I1
g129
tp166
a(I2
g127
tp167
a(I3
g129
tp168
a(I0
g127
tp169
a(I1
g129
tp170
a(I2
g127
tp171
a(I3
g129
tp172
a(I0
g127
tp173
a(I1
g129
tp174
a(I2
g127
tp175
a(I3
g129
tp176
a(I0
g127
tp177
a(I1
g129
tp178
a(I2
g127
tp179
a(I3
g129
tp180
a(I0
g127
tp181
a(I1
g129
tp182
a(I2
g127
tp183
a(I3
g129
tp184
a(I0
S'East'
p185
tp186
a(I1
S'West'
p187
tp188
a(I2
g127
tp189
a(I3
g129
tp190
a(I0
g185
tp191
a(I1
g187
tp192
a(I2
g185
tp193
a(I3
g187
tp194
a(I0
g185
tp195
a(I1
g127
tp196
a(I2
g185
tp197
a(I3
g187
tp198
a(I0
g129
tp199
a(I1
g187
tp200
a(I2
g185
tp201
a(I3
g127
tp202
a(I0
g185
tp203
a(I1
g187
tp204
a(I2
g129
tp205
a(I3
g187
tp206
a(I0
g185
tp207
a(I1
g187
tp208
a(I2
g185
tp209
a(I3
g187
tp210
a(I0
g185
tp211
a(I1
g129
tp212
a(I2
g185
tp213
a(I3
g187
tp214
a(I0
g127
tp215
a(I1
g187
tp216
a(I2
g185
tp217
a(I3
g129
tp218
a(I0
g185
tp219
a(I1
g187
tp220
a(I2
g127
tp221
a(I3
g187
tp222
a(I0
g185
tp223
a(I1
g187
tp224
a(I2
g185
tp225
a(I3
g187
tp226
a(I0
g129
tp227
a(I1
g127
tp228
a(I2
g185
tp229
a(I3
g187
tp230
a(I0
g129
tp231
a(I1
g127
tp232
a(I2
g129
tp233
a(I3
g127
tp234
a(I0
g129
tp235
a(I1
g127
tp236
a(I2
g129
tp237
a(I3
g127
tp238
a(I0
g185
tp239
a(I1
g187
tp240
a(I2
g129
tp241
a(I3
g127
tp242
a(I0
g185
tp243
a(I1
g187
tp244
a(I2
g185
tp245
a(I3
g187
tp246
a(I0
g185
tp247
a(I1
g187
tp248
a(I2
g185
tp249
a(I3
g187
tp250
a(I0
g185
tp251
a(I1
g127
tp252
a(I2
g185
tp253
a(I3
g187
tp254
a(I0
g187
tp255
a(I1
g127
tp256
a(I2
g185
tp257
a(I3
g129
tp258
a(I0
g185
tp259
a(I1
g187
tp260
a(I2
g127
tp261
a(I3
g187
tp262
a(I0
g187
tp263
a(I1
g187
tp264
a(I2
g185
tp265
a(I3
g187
tp266
a(I0
g185
tp267
a(I1
g187
tp268
a(I2
g127
tp269
a(I3
g129
tp270
a(I0
g187
tp271
a(I1
g127
tp272
a(I2
g185
tp273
a(I3
g187
tp274
a(I0
g185
tp275
a(I1
g127
tp276
a(I2
g185
tp277
a(I3
g187
tp278
a(I0
g187
tp279
a(I1
g127
tp280
a(I2
g185
tp281
a(I3
g187
tp282
a(I0
g185
tp283
a(I1
g187
tp284
a(I2
g185
tp285
a(I3
g187
tp286
a(I0
g187
tp287
a(I1
g127
tp288
a(I2
g185
tp289
a(I3
g187
tp290
a(I0
g185
tp291
a(I1
g127
tp292
a(I2
g127
tp293
a(I3
g187
tp294
a(I0
g187
tp295
a(I1
g187
tp296
a(I2
g129
tp297
a(I3
g187
tp298
a(I0
g185
tp299
a(I1
g187
tp300
a(I2
g185
tp301
a(I3
g187
tp302
a(I0
g129
tp303
a(I1
g187
tp304
a(I2
g185
tp305
a(I3
g187
tp306
a(I0
g129
tp307
a(I1
g187
tp308
a(I2
g127
tp309
a(I3
g185
tp310
a(I0
g127
tp311
a(I1
g127
tp312
a(I2
g129
tp313
a(I3
g185
tp314
a(I0
g127
tp315
a(I1
g127
tp316
a(I2
g185
tp317
a(I3
g185
tp318
a(I0
g127
tp319
a(I1
g127
tp320
a(I2
g185
tp321
a(I3
g185
tp322
a(I0
g127
tp323
a(I1
g185
tp324
a(I2
g127
tp325
a(I3
g185
tp326
a(I0
g127
tp327
a(I1
g127
tp328
a(I2
g129
tp329
a(I3
g127
tp330
a(I0
g127
tp331
a(I1
g127
tp332
a(I2
g187
tp333
a(I3
g127
tp334
a(I0
g127
tp335
a(I1
g187
tp336
a(I2
g187
tp337
a(I3
g127
tp338
a(I0
g127
tp339
a(I1
g187
tp340
a(I2
g187
tp341
a(I3
g127
tp342
a(I0
g127
tp343
a(I1
g185
tp344
a(I2
g187
tp345
a(I3
g185
tp346
a(I0
g127
tp347
a(I1
g185
tp348
a(I2
g187
tp349
a(I3
g127
tp350
a(I0
g127
tp351
a(I1
g129
tp352
a(I2
g129
tp353
a(I3
g127
tp354
a(I0
g127
tp355
a(I1
g185
tp356
a(I2
g129
tp357
a(I3
g127
tp358
a(I0
g127
tp359
a(I1
g185
tp360
a(I2
g129
tp361
a(I3
g127
tp362
a(I0
g127
tp363
a(I1
g185
tp364
a(I2
g129
tp365
a(I3
g127
tp366
a(I0
g185
tp367
a(I1
g129
tp368
a(I2
g187
tp369
a(I3
g187
tp370
a(I0
g185
tp371
a(I1
g129
tp372
a(I2
g129
tp373
a(I3
g187
tp374
a(I0
g185
tp375
a(I1
g185
tp376
a(I2
g129
tp377
a(I3
g187
tp378
a(I0
g129
tp379
a(I1
g129
tp380
a(I2
g129
tp381
a(I3
g127
tp382
a(I0
g185
tp383
a(I1
g129
tp384
a(I2
g129
tp385
a(I3
g127
tp386
a(I0
g185
tp387
a(I1
g187
tp388
a(I2
g129
tp389
a(I3
g187
tp390
a(I0
g185
tp391
a(I1
g129
tp392
a(I2
g185
tp393
a(I3
g187
tp394
a(I0
g127
tp395
a(I1
g129
tp396
a(I2
g185
tp397
a(I3
g187
tp398
a(I0
g185
tp399
a(I1
g129
tp400
a(I2
g185
tp401
a(I3
g187
tp402
a(I0
g185
tp403
a(I1
g129
tp404
a(I2
g185
tp405
a(I3
g129
tp406
a(I0
g129
tp407
a(I1
g129
tp408
a(I2
g129
tp409
a(I3
g129
tp410
a(I0
g129
tp411
a(I1
g185
tp412
a(I2
g129
tp413
a(I3
g185
tp414
a(I0
g129
tp415
a(I1
g185
tp416
a(I2
g185
tp417
a(I3
g187
tp418
a(I0
g185
tp419
a(I1
g185
tp420
a(I2
g185
tp421
a(I3
g127
tp422
a(I0
g185
tp423
a(I1
g129
tp424
a(I2
g185
tp425
a(I3
g127
tp426
a(I0
g185
tp427
a(I1
g129
tp428
a(I2
g127
tp429
a(I3
g127
tp430
a(I0
g185
tp431
a(I1
g185
tp432
a(I2
g127
tp433
a(I3
g127
tp434
a(I0
g187
tp435
a(I1
g185
tp436
a(I2
g187
tp437
a(I3
g185
tp438
a(I0
g187
tp439
a(I1
g185
tp440
a(I2
g185
tp441
a(I3
g127
tp442
a(I0
g185
tp443
a(I1
g187
tp444
a(I2
g129
tp445
a(I3
g187
tp446
a(I0
g185
tp447
a(I1
g187
tp448
a(I2
g129
tp449
a(I3
g187
tp450
a(I0
g187
tp451
a(I1
g127
tp452
a(I2
g129
tp453
a(I3
g187
tp454
a(I0
g185
tp455
a(I1
g129
tp456
a(I2
g129
tp457
a(I3
g129
tp458
a(I0
g187
tp459
a(I1
g185
tp460
a(I2
g187
tp461
a(I3
g187
tp462
a(I0
g187
tp463
a(I1
g185
tp464
a(I2
g185
tp465
a(I3
g187
tp466
a(I0
g185
tp467
a(I1
g187
tp468
a(I2
g127
tp469
a(I3
g187
tp470
a(I0
g185
tp471
a(I1
g187
tp472
a(I2
g127
tp473
a(I3
g185
tp474
a(I0
g187
tp475
a(I1
g127
tp476
a(I2
g187
tp477
a(I3
g185
tp478
a(I0
g185
tp479
a(I1
g127
tp480
a(I2
g187
tp481
a(I3
g127
tp482
a(I0
g187
tp483
a(I1
g187
tp484
a(I2
g187
tp485
a(I3
g185
tp486
a(I0
g185
tp487
a(I1
g187
tp488
a(I2
g187
tp489
a(I3
g185
tp490
a(I0
g187
tp491
a(I1
g187
tp492
a(I2
g129
tp493
a(I3
g185
tp494
a(I0
g185
tp495
a(I1
g185
tp496
a(I2
g187
tp497
a(I3
g129
tp498
a(I0
g187
tp499
a(I1
g185
tp500
a(I2
g129
tp501
a(I3
g129
tp502
a(I0
g185
tp503
a(I1
g129
tp504
a(I2
g129
tp505
a(I3
g129
tp506
a(I0
g187
tp507
a(I1
g129
tp508
a(I2
g127
tp509
a(I3
g185
tp510
a(I0
g185
tp511
a(I1
g127
tp512
a(I2
g187
tp513
a(I3
g185
tp514
a(I0
g187
tp515
a(I1
g129
tp516
a(I2
g187
tp517
a(I3
g185
tp518
a(I0
g127
tp519
a(I1
g129
tp520
a(I2
g187
tp521
a(I3
g127
tp522
a(I0
g127
tp523
a(I1
g187
tp524
a(I2
g185
tp525
a(I3
g185
tp526
a(I0
g127
tp527
a(I1
g185
tp528
a(I2
g185
tp529
a(I3
g185
tp530
a(I0
g127
tp531
a(I1
g127
tp532
a(I2
g185
tp533
a(I3
g127
tp534
a(I0
g127
tp535
a(I1
g127
tp536
a(I2
g129
tp537
a(I3
g185
tp538
a(I0
g127
tp539
a(I1
g129
tp540
a(I2
g185
tp541
a(I3
g185
tp542
a(I0
g127
tp543
a(I1
g129
tp544
a(I2
g185
tp545
a(I3
g185
tp546
a(I0
g127
tp547
a(I1
g187
tp548
a(I2
g187
tp549
a(I3
g187
tp550
a(I0
g127
tp551
a(I1
g129
tp552
a(I2
g187
tp553
a(I3
g187
tp554
a(I0
g127
tp555
a(I1
g129
tp556
a(I2
g127
tp557
a(I3
g187
tp558
a(I0
g127
tp559
a(I1
g129
tp560
a(I2
g187
tp561
a(I3
g129
tp562
a(I0
g127
tp563
a(I1
g129
tp564
a(I2
g187
tp565
a(I3
g187
tp566
a(I0
g127
tp567
a(I1
g129
tp568
a(I2
g187
tp569
a(I3
g129
tp570
a(I0
g127
tp571
a(I1
g129
tp572
a(I2
g185
tp573
a(I3
g129
tp574
a(I0
g185
tp575
a(I1
g129
tp576
a(I2
g185
tp577
a(I3
g129
tp578
a(I0
g185
tp579
a(I1
g129
tp580
a(I2
g185
tp581
a(I3
g129
tp582
a(I0
g185
tp583
a(I1
g129
tp584
a(I2
g127
tp585
a(I3
g129
tp586
a(I0
g129
tp587
a(I1
g129
tp588
a(I2
g185
tp589
a(I3
g187
tp590
a(I0
g185
tp591
a(I1
g129
tp592
a(I2
g185
tp593
a(I3
g129
tp594
a(I0
g185
tp595
a(I1
g129
tp596
a(I2
g127
tp597
a(I3
g129
tp598
a(I0
g185
tp599
a(I1
g129
tp600
a(I2
g127
tp601
a(I3
g185
tp602
a(I0
g127
tp603
a(I1
g129
tp604
a(I2
g127
tp605
a(I3
g127
tp606
a(I0
g185
tp607
a(I1
g129
tp608
a(I2
g127
tp609
a(I3
g127
tp610
a(I0
g185
tp611
a(I1
g129
tp612
a(I2
g127
tp613
a(I3
g127
tp614
a(I0
g129
tp615
a(I1
g187
tp616
a(I2
g127
tp617
a(I3
g127
tp618
a(I0
g129
tp619
a(I1
g187
tp620
a(I2
g127
tp621
a(I3
g185
tp622
a(I0
g129
tp623
a(I1
g127
tp624
a(I2
g187
tp625
a(I3
g185
tp626
a(I0
g185
tp627
a(I1
g187
tp628
a(I2
g127
tp629
a(I3
g185
tp630
a(I0
g185
tp631
a(I1
g187
tp632
a(I2
g127
tp633
a(I3
g185
tp634
a(I0
g185
tp635
a(I1
g187
tp636
a(I2
g185
tp637
a(I3
g129
tp638
a(I0
g185
tp639
a(I1
g129
tp640
a(I2
g129
tp641
a(I3
g129
tp642
a(I0
g187
tp643
a(I1
g187
tp644
a(I2
g129
tp645
a(I3
g129
tp646
a(I0
g185
tp647
a(I1
g187
tp648
a(I2
g129
tp649
a(I3
g129
tp650
a(I0
g187
tp651
a(I1
g187
tp652
a(I2
g129
tp653
a(I3
g129
tp654
a(I0
g185
tp655
a(I1
g127
tp656
a(I2
g129
tp657
a(I3
g185
tp658
a(I0
g129
tp659
a(I1
g127
tp660
a(I2
g129
tp661
a(I3
g185
tp662
a(I0
g129
tp663
a(I1
g127
tp664
a(I2
g129
tp665
a(I3
g185
tp666
a(I0
g185
tp667
a(I1
g187
tp668
a(I2
g129
tp669
a(I3
g129
tp670
a(I0
g185
tp671
a(I1
g187
tp672
a(I2
g129
tp673
a(I3
g129
tp674
a(I0
g185
tp675
a(I1
g187
tp676
a(I2
g129
tp677
a(I3
g129
tp678
a(I0
g129
tp679
a(I1
g129
tp680
a(I2
g129
tp681
a(I3
g187
tp682
a(I0
g129
tp683
a(I1
g129
tp684
a(I2
g187
tp685
a(I3
g129
tp686
a(I0
g129
tp687
a(I1
g129
tp688
a(I2
S'Stop'
p689
tp690
a(I3
g129
tp691
a(I0
g129
tp692
a(I1
g187
tp693
a(I2
g127
tp694
a(I3
g127
tp695
a(I0
g127
tp696
a(I1
g185
tp697
a(I2
g127
tp698
a(I3
g187
tp699
a(I0
g187
tp700
a(I1
g127
tp701
a(I2
g127
tp702
a(I3
g187
tp703
a(I0
g127
tp704
a(I1
g127
tp705
a(I2
g127
tp706
a(I3
g129
tp707
a(I0
g127
tp708
a(I1
g127
tp709
a(I2
g127
tp710
a(I3
g187
tp711
a(I0
g127
tp712
a(I1
g127
tp713
a(I2
g127
tp714
a(I3
g187
tp715
a(I0
g187
tp716
a(I1
g127
tp717
a(I2
g127
tp718
a(I3
g187
tp719
a(I0
g185
tp720
a(I1
g187
tp721
a(I2
g127
tp722
a(I3
g127
tp723
a(I0
g187
tp724
a(I1
g187
tp725
a(I2
g127
tp726
a(I3
g187
tp727
a(I0
g187
tp728
a(I1
g187
tp729
a(I2
g127
tp730
a(I3
g187
tp731
a(I0
g187
tp732
a(I1
g127
tp733
a(I2
g127
tp734
a(I3
g129
tp735
a(I0
g185
tp736
a(I1
g127
tp737
a(I2
g127
tp738
a(I3
g127
tp739
a(I0
g187
tp740
a(I1
g127
tp741
a(I2
g127
tp742
a(I3
g187
tp743
a(I0
g127
tp744
a(I1
g187
tp745
a(I2
g127
tp746
a(I3
g187
tp747
a(I0
g127
tp748
a(I1
g127
tp749
a(I2
g127
tp750
a(I3
g129
tp751
a(I0
g185
tp752
a(I1
g127
tp753
a(I2
g185
tp754
a(I3
g127
tp755
a(I0
g187
tp756
a(I1
g689
tp757
a(I2
g185
tp758
a(I3
g185
tp759
a(I0
g187
tp760
a(I1
g689
tp761
a(I2
g185
tp762
a(I3
g185
tp763
a(I0
g187
tp764
a(I1
g689
tp765
a(I2
g129
tp766
a(I3
g185
tp767
a(I0
g187
tp768
a(I1
g689
tp769
a(I2
g185
tp770
a(I3
g185
tp771
a(I0
g129
tp772
a(I1
g689
tp773
a(I2
g185
tp774
a(I3
g185
tp775
a(I0
g129
tp776
a(I1
g689
tp777
a(I2
g185
tp778
a(I3
g127
tp779
a(I0
g187
tp780
a(I1
g689
tp781
a(I2
g127
tp782
a(I3
g127
tp783
a(I0
g187
tp784
a(I1
g689
tp785
a(I2
g185
tp786
a(I3
g127
tp787
a(I0
g185
tp788
a(I1
g689
tp789
a(I2
g185
tp790
a(I3
g127
tp791
a(I0
g187
tp792
a(I1
g689
tp793
a(I2
g129
tp794
a(I3
g185
tp795
a(I0
g185
tp796
a(I1
g689
tp797
a(I2
g129
tp798
a(I3
g127
tp799
a(I0
g187
tp800
a(I1
g689
tp801
a(I2
g129
tp802
a(I3
g127
tp803
a(I0
g185
tp804
a(I1
g689
tp805
a(I2
g185
tp806
a(I3
g127
tp807
a(I0
g187
tp808
a(I1
g689
tp809
a(I2
g185
tp810
a(I3
g127
tp811
a(I0
g185
tp812
a(I1
g689
tp813
a(I2
g185
tp814
a(I3
g127
tp815
a(I0
g187
tp816
a(I1
g689
tp817
a(I2
g185
tp818
a(I3
g187
tp819
a(I0
g185
tp820
a(I1
g689
tp821
a(I2
g129
tp822
a(I3
g185
tp823
a(I0
g185
tp824
a(I1
g689
tp825
a(I2
g129
tp826
a(I3
g185
tp827
a(I0
g127
tp828
a(I1
g689
tp829
a(I2
g185
tp830
a(I3
g185
tp831
a(I0
g127
tp832
a(I1
g689
tp833
a(I2
g187
tp834
a(I3
g127
tp835
a(I0
g185
tp836
a(I1
g689
tp837
a(I2
g185
tp838
a(I3
g127
tp839
a(I0
g185
tp840
a(I1
g689
tp841
a(I2
g187
tp842
a(I3
g127
tp843
a(I0
g185
tp844
a(I1
g689
tp845
a(I2
g185
tp846
a(I3
g127
tp847
a(I0
g185
tp848
a(I1
g689
tp849
a(I2
g187
tp850
a(I3
g187
tp851
a(I0
g129
tp852
a(I1
g689
tp853
a(I2
g185
tp854
a(I3
g187
tp855
a(I0
g129
tp856
a(I1
g689
tp857
a(I2
g187
tp858
a(I3
g187
tp859
a(I0
g185
tp860
a(I1
g689
tp861
a(I2
g185
tp862
a(I3
g187
tp863
a(I0
g185
tp864
a(I1
g689
tp865
a(I2
g187
tp866
a(I3
g127
tp867
a(I0
g185
tp868
a(I1
g689
tp869
a(I2
g185
tp870
a(I3
g187
tp871
a(I0
g689
tp872
a(I1
g689
tp873
a(I2
g187
tp874
a(I3
g187
tp875
a(I0
g689
tp876
a(I1
g689
tp877
a(I2
g185
tp878
a(I3
g129
tp879
a(I0
g689
tp880
a(I1
g689
tp881
a(I2
g187
tp882
a(I3
g129
tp883
a(I0
g689
tp884
a(I1
g689
tp885
a(I2
g185
tp886
a(I3
g129
tp887
a(I0
g689
tp888
a(I1
g689
tp889
a(I2
g187
tp890
a(I3
g187
tp891
a(I0
g689
tp892
a(I1
g689
tp893
a(I2
g185
tp894
a(I3
g187
tp895
a(I0
g689
tp896
a(I1
g689
tp897
a(I2
g187
tp898
a(I3
g187
tp899
a(I0
g689
tp900
a(I1
g689
tp901
a(I2
g185
tp902
a(I3
g129
tp903
a(I0
g689
tp904
a(I1
g689
tp905
a(I2
g187
tp906
a(I3
g129
tp907
a(I0
g689
tp908
a(I1
g689
tp909
a(I2
g185
tp910
a(I3
g187
tp911
a(I0
g689
tp912
a(I1
g689
tp913
a(I2
g187
tp914
a(I3
g187
tp915
a(I0
g689
tp916
a(I1
g689
tp917
a(I2
g185
tp918
a(I3
g129
tp919
a(I0
g689
tp920
a(I1
g689
tp921
a(I2
g187
tp922
a(I3
g129
tp923
a(I0
g689
tp924
a(I1
g689
tp925
a(I2
g185
tp926
a(I3
g129
tp927
a(I0
g689
tp928
a(I1
g689
tp929
a(I2
g187
tp930
a(I3
g129
tp931
a(I0
g689
tp932
a(I1
g689
tp933
a(I2
g185
tp934
a(I3
g129
tp935
a(I0
g689
tp936
a(I1
g689
tp937
a(I2
g187
tp938
a(I3
g129
tp939
a(I0
g689
tp940
a(I1
g689
tp941
a(I2
g185
tp942
a(I3
g129
tp943
a(I0
g689
tp944
a(I1
g689
tp945
a(I2
g187
tp946
a(I3
g129
tp947
a(I0
g689
tp948
a(I1
g689
tp949
a(I2
g185
tp950
a(I3
g129
tp951
a(I0
g689
tp952
a(I1
g689
tp953
a(I2
g187
tp954
a(I3
g129
tp955
a(I0
g689
tp956
a(I1
g689
tp957
a(I2
g185
tp958
a(I3
g127
tp959
a(I0
g689
tp960
a(I1
g689
tp961
a(I2
g187
tp962
a(I3
g127
tp963
a(I0
g689
tp964
a(I1
g689
tp965
a(I2
g185
tp966
a(I3
g127
tp967
a(I0
g689
tp968
a(I1
g689
tp969
a(I2
g187
tp970
a(I3
g187
tp971
a(I0
g689
tp972
a(I1
g689
tp973
a(I2
g185
tp974
a(I3
g187
tp975
a(I0
g689
tp976
a(I1
g689
tp977
a(I2
g187
tp978
a(I3
g127
tp979
a(I0
g689
tp980
a(I1
g689
tp981
a(I2
g185
tp982
a(I3
g127
tp983
a(I0
g689
tp984
a(I1
g689
tp985
a(I2
g187
tp986
a(I3
g187
tp987
a(I0
g689
tp988
a(I1
g689
tp989
a(I2
g185
tp990
a(I3
g187
tp991
a(I0
g689
tp992
a(I1
g689
tp993
a(I2
g187
tp994
a(I3
g127
tp995
a(I0
g689
tp996
a(I1
g689
tp997
a(I2
g185
tp998
a(I3
g129
tp999
a(I0
g689
tp1000
a(I1
g689
tp1001
a(I2
g187
tp1002
a(I3
g185
tp1003
a(I0
g689
tp1004
a(I1
g689
tp1005
a(I2
g185
tp1006
a(I3
g185
tp1007
a(I0
g689
tp1008
a(I1
g689
tp1009
a(I2
g187
tp1010
a(I3
g127
tp1011
a(I0
g689
tp1012
a(I1
g689
tp1013
a(I2
g185
tp1014
a(I3
g127
tp1015
a(I0
g689
tp1016
a(I1
g689
tp1017
a(I2
g187
tp1018
a(I3
g127
tp1019
a(I0
g689
tp1020
a(I1
g689
tp1021
a(I2
g185
tp1022
a(I3
g127
tp1023
a(I0
g689
tp1024
a(I1
g689
tp1025
a(I2
g187
tp1026
a(I3
g127
tp1027
a(I0
g689
tp1028
a(I1
g689
tp1029
a(I2
g185
tp1030
a(I3
g127
tp1031
a(I0
g689
tp1032
a(I1
g689
tp1033
a(I2
g187
tp1034
a(I3
g127
tp1035
a(I0
g689
tp1036
a(I1
g689
tp1037
a(I2
g185
tp1038
a(I3
g187
tp1039
a(I0
g689
tp1040
a(I1
g689
tp1041
a(I2
g187
tp1042
a(I3
g187
tp1043
a(I0
g689
tp1044
a(I1
g689
tp1045
a(I2
g185
tp1046
a(I3
g129
tp1047
a(I0
g689
tp1048
a(I1
g689
tp1049
a(I2
g187
tp1050
a(I3
g129
tp1051
a(I0
g689
tp1052
a(I1
g689
tp1053
a(I2
g185
tp1054
a(I3
g129
tp1055
a(I0
g689
tp1056
a(I1
g689
tp1057
a(I2
g187
tp1058
a(I3
g129
tp1059
a(I0
g689
tp1060
a(I1
g689
tp1061
a(I2
g185
tp1062
a(I3
g127
tp1063
a(I0
g689
tp1064
a(I1
g689
tp1065
a(I2
g187
tp1066
a(I3
g127
tp1067
a(I0
g689
tp1068
a(I1
g689
tp1069
a(I2
g185
tp1070
a(I3
g127
tp1071
a(I0
g689
tp1072
a(I1
g689
tp1073
a(I2
g187
tp1074
a(I3
g127
tp1075
a(I0
g689
tp1076
a(I1
g689
tp1077
a(I2
g185
tp1078
a(I3
g185
tp1079
a(I0
g689
tp1080
a(I1
g689
tp1081
a(I2
g187
tp1082
a(I3
g127
tp1083
a(I0
g689
tp1084
a(I1
g689
tp1085
a(I2
g185
tp1086
a(I3
g127
tp1087
a(I0
g689
tp1088
a(I1
g689
tp1089
a(I2
g187
tp1090
a(I3
g127
tp1091
a(I0
g689
tp1092
a(I1
g689
tp1093
a(I2
g185
tp1094
a(I3
g129
tp1095
a(I0
g689
tp1096
a(I1
g689
tp1097
a(I2
g187
tp1098
a(I3
g185
tp1099
a(I0
g689
tp1100
a(I1
g689
tp1101
a(I2
g185
tp1102
a(I3
g185
tp1103
a(I0
g689
tp1104
a(I1
g689
tp1105
a(I2
g187
tp1106
a(I3
g127
tp1107
a(I0
g689
tp1108
a(I1
g689
tp1109
a(I2
g185
tp1110
a(I3
g185
tp1111
a(I0
g689
tp1112
a(I1
g689
tp1113
a(I2
g187
tp1114
a(I3
g185
tp1115
a(I0
g689
tp1116
a(I1
g689
tp1117
a(I2
g185
tp1118
a(I3
g185
tp1119
a(I0
g689
tp1120
a(I1
g689
tp1121
a(I2
g187
tp1122
a(I3
g129
tp1123
a(I0
g689
tp1124
a(I1
g689
tp1125
a(I2
g185
tp1126
a(I3
g129
tp1127
a(I0
g689
tp1128
a(I1
g689
tp1129
a(I2
g187
tp1130
a(I3
g129
tp1131
a(I0
g689
tp1132
a(I1
g689
tp1133
a(I2
g185
tp1134
a(I3
g185
tp1135
a(I0
g689
tp1136
a(I1
g689
tp1137
a(I2
g187
tp1138
a(I3
g185
tp1139
a(I0
g689
tp1140
a(I1
g689
tp1141
a(I2
g185
tp1142
a(I3
g185
tp1143
a(I0
g689
tp1144
a(I1
g689
tp1145
a(I2
g187
tp1146
a(I3
g127
tp1147
a(I0
g689
tp1148
a(I1
g689
tp1149
a(I2
g185
tp1150
a(I3
g127
tp1151
a(I0
g689
tp1152
a(I1
g689
tp1153
a(I2
g187
tp1154
a(I3
g127
tp1155
a(I0
g689
tp1156
a(I1
g689
tp1157
a(I2
g185
tp1158
a(I3
g185
tp1159
a(I0
g689
tp1160
a(I1
g689
tp1161
a(I2
g187
tp1162
a(I3
g185
tp1163
a(I0
g689
tp1164
a(I1
g689
tp1165
a(I2
g185
tp1166
a(I3
g129
tp1167
a(I0
g689
tp1168
a(I1
g689
tp1169
a(I2
g187
tp1170
a(I3
g185
tp1171
a(I0
g689
tp1172
a(I1
g689
tp1173
a(I2
g185
tp1174
a(I3
g185
tp1175
a(I0
g689
tp1176
a(I1
g689
tp1177
a(I2
g187
tp1178
a(I3
g185
tp1179
asS'length'
p1180
I1200
sS'agents'
p1181
(lp1182
(igame
Agent
p1183
(dp1184
S'index'
p1185
I0
sba(igame
Agent
p1186
(dp1187
g1185
I0
sba(igame
Agent
p1188
(dp1189
g1185
I0
sba(igame
Agent
p1190
(dp1191
g1185
I0
sbasS'redTeamName'
p1192
S'Red'
p1193
s.